(lp0
Vraining
p1
aVwritings
p2
aVyellow
p3
aVfour
p4
aVhanging
p5
aVjemma
p6
aVpegea
p7
aVmsgs
p8
aVpefumery
p9
aVrandy9bis
p10
aVscold
p11
aVunanswered
p12
aVlori
p13
aVtommarow
p14
aVlord
p15
aVimmature
p16
aVaigooo
p17
aVsehun
p18
aVregional
p19
aVretailers
p20
aVdelph
p21
aVmechatotems
p22
aVoceana
p23
aVstabbed
p24
aVbringing
p25
aVfeytyaz
p26
aVprize
p27
aVyachting
p28
aVbuttonhole
p29
aVfuq
p30
aVwednesday
p31
aVpubcast
p32
aVcourgette
p33
aVoooh
p34
aVbittersweetness
p35
aVtired
p36
aVmiller
p37
aVnaruhina
p38
aVnooooowwwww
p39
aVbacon
p40
aVsecond
p41
aVwhykaysbeauty
p42
aV_millzxy3d
p43
aVerrors
p44
aVhahahahahahahahahahahahahaha
p45
aVunlisted
p46
aVinglewood
p47
aVthunder
p48
aVcooking
p49
aVbadlife
p50
aVfingers
p51
aVsaludos
p52
aVmoodboster
p53
aVgroupie
p54
aVautofollowback
p55
aVnawf
p56
aVspecialist
p57
aVhero
p58
aV21pics
p59
aVsobs
p60
aVbrainwashed
p61
aVhere
p62
aVspecialise
p63
aVreported
p64
aVchina
p65
aVdorm
p66
aVaffiliated
p67
aVconversational
p68
aVkids
p69
aVelaborate
p70
aVclimbed
p71
aVreports
p72
aVcontroversy
p73
aVziam
p74
aVkarin
p75
aVcriticism
p76
aVgolden
p77
aVskelo_ghost
p78
aVground
p79
aVdisability
p80
aVaisyah
p81
aVmileycyrus
p82
aVgoictived70685
p83
aVlynne
p84
aVbrought
p85
aVvandagchatlas
p86
aVtxt
p87
aVp41
p88
aVcara
p89
aVspoke
p90
aVbrowse
p91
aVinsecurity
p92
aVluxuous
p93
aVdnt
p94
aVsymphony
p95
aVmusic
p96
aVtherefore
p97
aVpassport
p98
aVstrike
p99
aVuntil
p100
aVnyquil
p101
aVholy
p102
aVrelax
p103
aVsuccessful
p104
aVbrings
p105
aVhols
p106
aVyahoo
p107
aVhurt
p108
aVglass
p109
aVexcl
p110
aVhold
p111
aVhola
p112
aVaurini
p113
aVlocked
p114
aVaccomplishment
p115
aVfancafe
p116
aVbaymax
p117
aVruess
p118
aVyup
p119
aVselenas
p120
aVchickmt123
p121
aVexample
p122
aVyoutube2_gpctsojkw
p123
aVmatsu_bouzu
p124
aVwana
p125
aVfoodie
p126
aVthemselvesihatesomepeople
p127
aVhahahaokay
p128
aVcalories
p129
aVdunkin
p130
aVreviewing
p131
aVwant
p132
aVaddressing
p133
aVabsolute
p134
aVpreferably
p135
aVhoe
p136
aValacer
p137
aVunivesity
p138
aVhon
p139
aVtravel
p140
aVfeature
p141
aVmachine
p142
aVhow
p143
aVhot
p144
aVhop
p145
aVthusi
p146
aVactivation
p147
aVgaming
p148
aVbeauty
p149
aVtyped
p150
aVcuss
p151
aVbeauts
p152
aVwrong
p153
aVbollinger
p154
aVpyjamas
p155
aVkuching
p156
aVhuhuh
p157
aVeffective
p158
aVworkingonatightschedule
p159
aVdiscontinued
p160
aVbaggage
p161
aV18th
p162
aVapink
p163
aVkeeps
p164
aVhuhuu
p165
aVbarristas
p166
aVwing
p167
aVwind
p168
aVwine
p169
aVrepath
p170
aVbitsybitdefendercom
p171
aVafterwards
p172
aVfeedback
p173
aVwelcomed
p174
aVjordy
p175
aVcharade
p176
aVbioooo
p177
aVdreamer
p178
aVfit
p179
aVscreaming
p180
aVfix
p181
aVstriking
p182
aVwales
p183
aVhidden
p184
aVeasier
p185
aVledgers
p186
aVglorify
p187
aVcopying
p188
aVnisrina
p189
aVzac
p190
aVbasics
p191
aVeffects
p192
aVbeaut
p193
aVschools
p194
aVtreviso
p195
aVcafe
p196
aVmobage
p197
aVrepresents
p198
aVhrryok
p199
aVhahahahahaah
p200
aVdebut
p201
aVskills
p202
aVsuperday
p203
aVluckanother
p204
aVaddicted
p205
aVvolcano
p206
aVfinancial
p207
aVsnakes
p208
aVwoes
p209
aVistanya
p210
aVseries
p211
aVallah
p212
aV150160
p213
aVlaboratory
p214
aVwhit
p215
aVring
p216
aVwhip
p217
aVtrending
p218
aVsmu
p219
aVsms
p220
aVgeorge
p221
aVseungyeon
p222
aVencourage
p223
aVcaerphilly
p224
aVsmi
p225
aVsmh
p226
aVsmf
p227
aVsocialmediadpdgroupcouk
p228
aViam
p229
aVassured
p230
aVthreatened
p231
aVsurveys
p232
aVpumpkins
p233
aVbomdia
p234
aVchecked
p235
aVate
p236
aVjot
p237
aVatl
p238
aVatm
p239
aVheiya
p240
aVsm1
p241
aVgraces
p242
aVsilicon
p243
aVshipped
p244
aVatp
p245
aVfavouriting
p246
aVclothes
p247
aVyester
p248
aVtweeeps
p249
aVzayns
p250
aVnaggy
p251
aVloool
p252
aVsteroids
p253
aVwasp
p254
aVveggie
p255
aVchannels
p256
aVspinning
p257
aVkfc
p258
aV179
p259
aVolds
p260
aVbasketball
p261
aVservice
p262
aVlego
p263
aVlega
p264
aVngee
p265
aVtango
p266
aVneeded
p267
aVmaster
p268
aVlisted
p269
aVhiya
p270
aVbitter
p271
aVgenesis
p272
aVlisten
p273
aVdonutsss
p274
aVcollapse
p275
aVgeneva
p276
aVkno
p277
aVcushions
p278
aVscrapes
p279
aVwisdom
p280
aVnirvana
p281
aVaaaahhh
p282
aVmutilated
p283
aVbackstage
p284
aVoliviafowles891
p285
aVhays
p286
aVburdensays
p287
aVshowed
p288
aVjanniecam
p289
aVtree
p290
aVrotorua
p291
aVhardwired
p292
aVproject
p293
aVsheen
p294
aVfeeling
p295
aVgroaning
p296
aVafghanistnwar
p297
aVantagonistic
p298
aVgoys
p299
aVconcordia
p300
aVpicks
p301
aVlonge
p302
aVdozen
p303
aVkayo
p304
aVcactus
p305
aVcourier
p306
aVperson
p307
aVclimate
p308
aVawuuuuuuuuuuuuuuuuuuuuuuuuuuuuuuuuuuuuuuuuu
p309
aVscousers
p310
aVeagerly
p311
aVcardsstationery
p312
aVamnotness
p313
aVrecommended
p314
aVdoors
p315
aVmaaaaaay
p316
aVbbygurl
p317
aVcommitting
p318
aVmurugan
p319
aVshall
p320
aVthrilled
p321
aVdoin
p322
aVvictoria
p323
aVtheatres
p324
aVmouth
p325
aVletter
p326
aVorganization
p327
aVoneee
p328
aVmacbook
p329
aVmorality
p330
aVehdar
p331
aVsinger
p332
aVepisode
p333
aVkiya
p334
aVcops
p335
aVcamp
p336
aVmultiracial
p337
aVmakati
p338
aVtech
p339
aVincompleta
p340
aVscream
p341
aVincomplete
p342
aVsaying
p343
aVbomb
p344
aVnominated
p345
aVparticipate
p346
aVpris
p347
aVambre
p348
aVprinsesa
p349
aVlessons
p350
aVorleans
p351
aVbusy
p352
aVlayout
p353
aVshuffling
p354
aVheadline
p355
aVmenu
p356
aVwindow
p357
aVsupersport
p358
aVbust
p359
aVappreciated
p360
aVrihanna
p361
aVgryph
p362
aVbush
p363
aVmeni
p364
aVrich
p365
aVmene
p366
aVrice
p367
aVthemi
p368
aVkinickers
p369
aVpocket
p370
aVkandekjs
p371
aVsaturdaythen
p372
aVevet
p373
aVunfortunately
p374
aVharumph
p375
aVnicely
p376
aV1111s
p377
aVsandwich
p378
aVpatch
p379
aVyayyyy
p380
aVeyelids
p381
aVrelease
p382
aVwiellys
p383
aVclasss
p384
aVrespond
p385
aVblew
p386
aVbesi
p387
aVfair
p388
aVmadatte
p389
aVyummmyyy
p390
aVgoodnight
p391
aVresult
p392
aVfail
p393
aVnocturnal
p394
aVbest
p395
aVmigrines
p396
aVtierd
p397
aVotps
p398
aVlots
p399
aVsombrero
p400
aVshittier
p401
aVrings
p402
aVaaaaahhhhhhhh
p403
aVscore
p404
aVirl
p405
aVprada
p406
aVyogurt
p407
aVgeorgesampson
p408
aVdelphy
p409
aVchickfila
p410
aVglasgow
p411
aVclaws
p412
aVmen
p413
aVakarshan
p414
aVrolled
p415
aVontrack
p416
aVfersuree
p417
aVwtf
p418
aVwth
p419
aVdebt
p420
aVroller
p421
aVpity
p422
aVchelny
p423
aVcountry
p424
aVpits
p425
aVadventures
p426
aVedgar
p427
aVtearout
p428
aVplanned
p429
aVlogic
p430
aVpita
p431
aVlogin
p432
aVargue
p433
aVasked
p434
aV30th
p435
aVokkkk
p436
aV2nd
p437
aVhers
p438
aVmoney1
p439
aVirresponsibly
p440
aVpregnancy
p441
aVdiff
p442
aVblonde
p443
aVgrazing
p444
aVbeachs
p445
aVwaaah
p446
aVdiagnosed
p447
aVjadines
p448
aVfenja
p449
aVshouting
p450
aVchrome
p451
aVfri
p452
aVcriticised
p453
aVsubsidy
p454
aVmuch
p455
aVstadium
p456
aVokayish
p457
aVtutorials
p458
aVfry
p459
aVleeteuk
p460
aVann
p461
aVdots
p462
aVonyu
p463
aVlife
p464
aVsuan
p465
aVworker
p466
aVnaya
p467
aVariana
p468
aVjeon
p469
aVdave
p470
aVshoeshi
p471
aVchild
p472
aVworked
p473
aVhaters
p474
aVspin
p475
aVcunt
p476
aVchill
p477
aVylona
p478
aVmodimo
p479
aVorayt
p480
aVkennat
p481
aVsikandar
p482
aVcongratulation
p483
aVplayed
p484
aVditching
p485
aVplayer
p486
aVeighteen
p487
aVvictims
p488
aVudah
p489
aVhong
p490
aVthingy
p491
aVpaysafecard
p492
aVcheung
p493
aVthings
p494
aV1093
p495
aVharmony
p496
aVxxoo
p497
aVbig
p498
aVausidineo_
p499
aVeuropean
p500
aVdinooo
p501
aVtops
p502
aVslovenia
p503
aVneobytes
p504
aVmahnor
p505
aVtuna
p506
aVabbycan
p507
aVtune
p508
aVshakyra_cledera
p509
aVimysm
p510
aVacademic
p511
aVnachos
p512
aVfittest
p513
aVopinions
p514
aVsleeps
p515
aVucas
p516
aVpooooooooor
p517
aVsleepy
p518
aV220515240515
p519
aVfinancially
p520
aVbirmingham
p521
aVucan
p522
aVprevious
p523
aVhah
p524
aVhai
p525
aVham
p526
aVhan
p527
aVhaa
p528
aVease
p529
aVhad
p530
aVemphasis
p531
aVaffaraid
p532
aVhay
p533
aVeasy
p534
aVprison
p535
aVahours
p536
aVhar
p537
aVhas
p538
aVhat
p539
aVbnf
p540
aVhav
p541
aVhaw
p542
aVklappertart
p543
aVdeleicious
p544
aVpossible
p545
aVcliche
p546
aVposey
p547
aVmessaged
p548
aVbirth
p549
aVunique
p550
aVimiss
p551
aVunfollowers
p552
aValice
p553
aVsteph
p554
aVremind
p555
aVsteps
p556
aVadvaddict_15
p557
aVsebastian
p558
aVright
p559
aVold
p560
aVjackets
p561
aVcrowd
p562
aVpeople
p563
aVheadachewoke
p564
aVcreed
p565
aVcrown
p566
aVbeet
p567
aVmommys
p568
aVcreep
p569
aVenemies
p570
aVsummoner
p571
aVfor
p572
aVbottom
p573
aVrehearse
p574
aVcreative
p575
aVindividuals
p576
aVagainand
p577
aVfoh
p578
aVs2e12
p579
aVshakes
p580
aVrep
p581
aVdental
p582
aVbarcode
p583
aVsupercars
p584
aVshifting
p585
aVdefensive
p586
aVlosing
p587
aVliya
p588
aVbanget
p589
aVcitizens
p590
aVbandar
p591
aVptsd
p592
aVcatchy
p593
aVregretting
p594
aVstoked
p595
aVslightly
p596
aVores
p597
aVsoi
p598
aVmbf
p599
aVhoneymoon
p600
aVsom
p601
aVmba
p602
aVsoo
p603
aVmbc
p604
aVthankful
p605
aVbeings
p606
aVwrap
p607
aVwena
p608
aVallgt
p609
aVhallo
p610
aVtami
p611
aVsupport
p612
aVconstantly
p613
aVtame
p614
aVavail
p615
aVripaaaaa
p616
aVharana
p617
aVjane
p618
aVtweeps
p619
aVtamp
p620
aVhalls
p621
aVlaunching
p622
aVhappy
p623
aVheadack
p624
aVjourno
p625
aVemilys
p626
aVchanhun
p627
aVoffer
p628
aVtama
p629
aVpaypal
p630
aVnotifications
p631
aVmelanie
p632
aVunderstandable
p633
aVfinnair
p634
aVcala
p635
aVyepproud
p636
aVotter
p637
aVcongratulations
p638
aVinside
p639
aVdevices
p640
aVtalaga
p641
aVnicest
p642
aVtorturing
p643
aVcrapple
p644
aVpesos
p645
aVpanels
p646
aV150
p647
aVlater
p648
aVqih
p649
aV156
p650
aVnationpraying
p651
aVtournament
p652
aVminal
p653
aVcrumble
p654
aVsomebody
p655
aVproves
p656
aVexist
p657
aVkha
p658
aVhappenend
p659
aVmrs
p660
aVmonthre
p661
aVfloor
p662
aVglacier
p663
aVactor
p664
aVyouand
p665
aVrole
p666
aVampsha
p667
aVdevelopers
p668
aVsmell
p669
aVroll
p670
aVtrafficking
p671
aVhungrrrryyy
p672
aVintend
p673
aVmodels
p674
aVmianhe
p675
aV7234
p676
aV15e
p677
aVrolling
p678
aVjmu
p679
aVexplosions
p680
aVnxt
p681
aVtimw
p682
aVmarathon
p683
aVlart
p684
aV0717pm
p685
aVsiregar
p686
aVtime
p687
aVbabyyy
p688
aVboreddd
p689
aVquuuuuuee
p690
aVchain
p691
aVwhoever
p692
aVoss
p693
aVleanneriner19
p694
aVyoohoo
p695
aVskate
p696
aVdasvidaniya
p697
aVchair
p698
aVdavao
p699
aVhole
p700
aVvenice
p701
aVspeciallymarked
p702
aVballer
p703
aVhapppy
p704
aVsched
p705
aVvex
p706
aVokok
p707
aVconnecting
p708
aVmacho
p709
aVdownloading
p710
aVicing
p711
aVjerk
p712
aVrecipe
p713
aVchoice
p714
aVa7la
p715
aV5min
p716
aVsouthpaw
p717
aVminute
p718
aVjobee
p719
aVsadbad
p720
aVknockin
p721
aV1707
p722
aV1708
p723
aV1709
p724
aVrights
p725
aVleave
p726
aVsolved
p727
aVsettle
p728
aVsubway
p729
aVteal
p730
aVteam
p731
aVloads
p732
aVhozier
p733
aVzamn
p734
aVspiritual
p735
aVsige
p736
aVcollage
p737
aVsigh
p738
aVsign
p739
aVfaaaaaabulous
p740
aVrocro13glodyysbro
p741
aVcelebrated
p742
aVmbalula
p743
aVmelt
p744
aVcurrent
p745
aV300
p746
aVtwurkin
p747
aVfalling
p748
aVcrackling
p749
aVbadge
p750
aVoldies
p751
aVprevoting
p752
aVfuneral
p753
aVconcepts
p754
aVunderstanding
p755
aVnemesis
p756
aVaddress
p757
aValone
p758
aValong
p759
aVlongdistance
p760
aVbenson
p761
aVenroll
p762
aVsurajettan
p763
aVbrilliant
p764
aVwherever
p765
aVhilang
p766
aVstormsgtgt
p767
aVg2a
p768
aVstudies
p769
aVctto
p770
aVtasks
p771
aVlove
p772
aVacube
p773
aVprefer
p774
aVbloody
p775
aVfake
p776
aVchweet
p777
aVgulo
p778
aVinfnt
p779
aVworking
p780
aVpositive
p781
aVangry
p782
aVtwitlonger
p783
aVwondering
p784
aVfilms
p785
aVscope
p786
aVwicked
p787
aVintroducing
p788
aVclicks_sa
p789
aVafford
p790
aV330am
p791
aVwrocilam
p792
aVapproving
p793
aVlamon
p794
aVwooo
p795
aVvisual
p796
aVgoods
p797
aVeverywhere
p798
aVscratches
p799
aVriders
p800
aVinvolve
p801
aVdeserved
p802
aValllllll
p803
aVoriginally
p804
aVpretend
p805
aVfoods
p806
aVprinting
p807
aVfollowing
p808
aVfandango
p809
aVtoffee
p810
aVglyon
p811
aVsnot
p812
aVfrogs
p813
aVhahahax
p814
aVawesome
p815
aVallowed
p816
aVreqd
p817
aVoffense
p818
aV230
p819
aVlistens
p820
aVmelbourne
p821
aVwinter
p822
aVrewatches
p823
aVlitro
p824
aVbosen
p825
aVthanking
p826
aVimmune
p827
aVanghel
p828
aVsenpai
p829
aVharmos
p830
aVminhyuks
p831
aVdatz
p832
aVliverpool
p833
aVspot
p834
aVdats
p835
aVlatte
p836
aVmustve
p837
aVimproving
p838
aVsuch
p839
aVsuck
p840
aVaich
p841
aVdata
p842
aVstress
p843
aVsurfing
p844
aVnatural
p845
aVwhyyyyy
p846
aVunfollows
p847
aVwheelchair
p848
aVshorthaired
p849
aVvikk
p850
aVmango
p851
aVtruck
p852
aVswollen
p853
aVwolves
p854
aVmisplaced
p855
aVpulled
p856
aVmanga
p857
aVsuspemsion
p858
aVpaindo
p859
aVbylfnnz
p860
aVyears
p861
aVhiring
p862
aVepisodes
p863
aVlossstolen
p864
aVevery1
p865
aVauguri
p866
aVlovelies
p867
aVteabread
p868
aVviners
p869
aVthumb
p870
aVinfirmities
p871
aVjim
p872
aVtroubles
p873
aVtwitching
p874
aVfaves
p875
aVattraction
p876
aVcreations
p877
aVgatorade
p878
aVmilkeu
p879
aV930
p880
aVtory
p881
aVabusive
p882
aVlimbo
p883
aVrettweet
p884
aVinsomnia
p885
aVnation
p886
aVanswer
p887
aVsubscribers
p888
aVcheetah
p889
aVsorted
p890
aVahaha
p891
aVketchup
p892
aVfreya
p893
aVmuka
p894
aVfabian
p895
aVbowling
p896
aVveins
p897
aVphotoshoot
p898
aVturtle
p899
aVsquare
p900
aVbeloved
p901
aVpoopie
p902
aVsponsor
p903
aVentering
p904
aVgibran
p905
aVswearwords
p906
aVtroll
p907
aVcanvas
p908
aVcontainer
p909
aVsethis
p910
aVsunburnt
p911
aVforgetting
p912
aVmacauley
p913
aVcontained
p914
aVinternet
p915
aVbison
p916
aVaylesburyowl
p917
aVmamabear
p918
aVsheffield
p919
aVmillion
p920
aVseventh
p921
aVmaganda
p922
aVquite
p923
aVsnooker
p924
aVcomplicated
p925
aVemulation
p926
aVbesides
p927
aVgrandma
p928
aVmimi
p929
aVpoems
p930
aVinhaler
p931
aVscarred
p932
aVtraining
p933
aVdunno
p934
aVprogramming
p935
aVjillcruz18
p936
aV79x
p937
aVspending
p938
aVpuns
p939
aVaboard
p940
aVroutes
p941
aVemotion
p942
aVwlan
p943
aVprogrmr
p944
aVpotter
p945
aVone
p946
aVspanish
p947
aVvote
p948
aVwohooyou
p949
aVreadingres
p950
aVrosebury
p951
aVcity
p952
aVsayed
p953
aVconno
p954
aVbite
p955
aVstructured
p956
aVrodders
p957
aVgyllenhaal
p958
aVfml
p959
aVshiver
p960
aVairecs
p961
aVgtdlt
p962
aVuries
p963
aVbits
p964
aVcloserchasing
p965
aVshoshannavassil
p966
aVshawn
p967
aVmapbox
p968
aVproving
p969
aVspoken
p970
aVridiculous
p971
aVtruthfulwordsof
p972
aVrepresenting
p973
aVboyfriend
p974
aVtranslate
p975
aVxrays
p976
aVlaiten
p977
aVspecs
p978
aVfuture
p979
aViflix
p980
aVcollege
p981
aVsophie
p982
aVrussia
p983
aVproactive
p984
aVhanbin
p985
aVillness
p986
aVpartyin
p987
aVsan
p988
aVsam
p989
aVturned
p990
aVlocations
p991
aVsad
p992
aVwoah
p993
aVsay
p994
aVburied
p995
aVpornography
p996
aVsaw
p997
aVfarbridges
p998
aVsat
p999
aV50cents
p1000
aVzoe
p1001
aVbabysit
p1002
aVlondonnor
p1003
aVaside
p1004
aVzoo
p1005
aVnote
p1006
aVomfg
p1007
aVtake
p1008
aVwanting
p1009
aVconcern
p1010
aVpimple
p1011
aVbutterfly
p1012
aVprinter
p1013
aVmostest
p1014
aVopposite
p1015
aVbuffer
p1016
aVknew
p1017
aVeldest
p1018
aVisraeli
p1019
aVprinted
p1020
aVknee
p1021
aVbeleve
p1022
aVpages
p1023
aVplanningtiming
p1024
aVsali
p1025
aVlawn
p1026
aVaverage
p1027
aVphil
p1028
aVsale
p1029
aVsodas
p1030
aVbade
p1031
aVphir
p1032
aVredirected
p1033
aVmadison
p1034
aVcherry
p1035
aVdefinite
p1036
aVmince
p1037
aVbright
p1038
aVelah
p1039
aVinconsistent
p1040
aVdieback
p1041
aVanshe
p1042
aVslot
p1043
aVslow
p1044
aVbbz
p1045
aVdeck
p1046
aVrobs
p1047
aVhimher
p1048
aVtears
p1049
aVgoing
p1050
aVdreamed
p1051
aVdailyteenwords
p1052
aVwooden
p1053
aVneato
p1054
aVcaroline
p1055
aVjadine_addicts
p1056
aVyipeeee
p1057
aVnonce
p1058
aVremastered
p1059
aVcathys
p1060
aVgoodluck
p1061
aVfreezing
p1062
aVwheelie
p1063
aVsnark
p1064
aVwhaaat
p1065
aVlaguna
p1066
aVeyyah
p1067
aVprime
p1068
aVprima
p1069
aVartist
p1070
aVlabyu
p1071
aVborrow
p1072
aVawwwww
p1073
aVworried
p1074
aVlabyo
p1075
aVbeiruting
p1076
aVbombs
p1077
aVpausetime
p1078
aVwhere
p1079
aVxmas
p1080
aVwhattsap
p1081
aVmypark
p1082
aVwnick
p1083
aVgangster
p1084
aVanyways
p1085
aVmobitel
p1086
aVsurgery
p1087
aVclips
p1088
aVuntapped
p1089
aVjumped
p1090
aVrepresentatives
p1091
aVdaaaaaamn
p1092
aVleviboard
p1093
aVvaccines
p1094
aVsmoshthe
p1095
aVx29
p1096
aVx28
p1097
aVrefreshed
p1098
aVx25
p1099
aVx24
p1100
aVyepp
p1101
aVx26
p1102
aVx21
p1103
aVx20
p1104
aVx23
p1105
aVx22
p1106
aVpunta
p1107
aVgrandpas
p1108
aVjobs
p1109
aVdomg
p1110
aVimran
p1111
aVrecitation
p1112
aVspare
p1113
aVmenacing
p1114
aVmosquitoe
p1115
aVcerbchan
p1116
aVmans
p1117
aVmany
p1118
aVyeeew
p1119
aVmana
p1120
aVverity
p1121
aVding
p1122
aVworkplace
p1123
aVrecordings
p1124
aVmani
p1125
aVyelled
p1126
aVexpression
p1127
aVallowance
p1128
aVpastimes
p1129
aVsadlol
p1130
aVboaz
p1131
aVtwin
p1132
aVnoooot
p1133
aV3000
p1134
aVcomeback
p1135
aVboar
p1136
aVanta
p1137
aVconsiders
p1138
aVboat
p1139
aVcaring
p1140
aVburek
p1141
aVnandos
p1142
aVcarina
p1143
aVcrei
p1144
aVstretch
p1145
aVwest
p1146
aVbrainwashing
p1147
aVartistic
p1148
aVvacation
p1149
aVbreath
p1150
aV15ml
p1151
aVmeeee
p1152
aVwese
p1153
aVoriginates
p1154
aVkinks
p1155
aVwants
p1156
aVletshavecocktailsafternuclai
p1157
aVshortlist
p1158
aVunsafe
p1159
aVcoughing
p1160
aVphotos
p1161
aVhashtag
p1162
aVutube
p1163
aVformer
p1164
aVjute
p1165
aVisabella
p1166
aVmontys
p1167
aVbruuh
p1168
aVconsultant
p1169
aVlyf
p1170
aVnewspaper
p1171
aVsituation
p1172
aVjumpa
p1173
aVpenthouse
p1174
aVive
p1175
aVthatll
p1176
aVbrou
p1177
aVfams
p1178
aVengaged
p1179
aVmixtape
p1180
aVbros
p1181
aVpinky
p1182
aVbroh
p1183
aVdragging
p1184
aVverified
p1185
aVrooting
p1186
aVthreatens
p1187
aVhxh
p1188
aVperpetually
p1189
aVsiguro
p1190
aVeverday
p1191
aVbreakdown
p1192
aVatchya
p1193
aVsingapore
p1194
aVeunhae
p1195
aVhelpppp
p1196
aVwolrd
p1197
aVvouchers
p1198
aVcheers
p1199
aVbigbang
p1200
aVjdjdjdjd
p1201
aVnicoleapage
p1202
aVaskip
p1203
aVtraine
p1204
aVhubba
p1205
aVjaclintiler
p1206
aVcoursework
p1207
aVvacant
p1208
aVcosts
p1209
aVtrains
p1210
aVgrumpy
p1211
aVhubby
p1212
aV777x
p1213
aVsummer
p1214
aVresy
p1215
aVamargolonnard
p1216
aVjenners
p1217
aVishii
p1218
aVbeing
p1219
aVrest
p1220
aVkloss
p1221
aVaready
p1222
aVsorryi
p1223
aVhayley
p1224
aVweekly
p1225
aVlmfaooso
p1226
aVinstrument
p1227
aVdicks
p1228
aVinfinites
p1229
aVstarving
p1230
aVaround
p1231
aVsums
p1232
aVperiod
p1233
aVdark
p1234
aVdari
p1235
aVhuffpost
p1236
aVtraffic
p1237
aVdispatch
p1238
aVworld
p1239
aVdeosnt
p1240
aVdare
p1241
aVouucchhh
p1242
aVclan
p1243
aVgreska
p1244
aVfunfilled
p1245
aVdyed
p1246
aVrightnow
p1247
aVcatamarans
p1248
aVthisadeccowaytowork
p1249
aVgimme
p1250
aVaameen
p1251
aVkahlil
p1252
aVbeverly
p1253
aVinter
p1254
aVstationary
p1255
aVkennel
p1256
aVclap
p1257
aVfiver
p1258
aVwoza
p1259
aVbayonetta
p1260
aVplayin
p1261
aVracial
p1262
aVdivine
p1263
aVthinks
p1264
aVyesss
p1265
aVjgh
p1266
aVtote
p1267
aVmemories
p1268
aVnoon
p1269
aVnooo
p1270
aVvale
p1271
aVx15336
p1272
aVexit
p1273
aVx15337
p1274
aV915
p1275
aVdimples
p1276
aV911
p1277
aVx15334
p1278
aVnawee
p1279
aVx15335
p1280
aVdekhi
p1281
aVpower
p1282
aVvivian
p1283
aVinternship
p1284
aVleno
p1285
aVjahat
p1286
aVleadership
p1287
aVbiases
p1288
aVgiftso
p1289
aVdobar
p1290
aVthrowback
p1291
aVdumont
p1292
aVx15331
p1293
aVacc
p1294
aVace
p1295
aVpackage
p1296
aVack
p1297
aVindustry
p1298
aVpinkfinite
p1299
aVfavorite
p1300
aVmeal
p1301
aVtumor
p1302
aVniall
p1303
aVtaray
p1304
aVact
p1305
aVbond
p1306
aVpartied
p1307
aVeditied
p1308
aVfieldtrips
p1309
aVflawed
p1310
aVimage
p1311
aVhuvvft
p1312
aVbjp
p1313
aVaccumulated
p1314
aVgtgt
p1315
aVtechnically
p1316
aVher
p1317
aVhes
p1318
aVgleam
p1319
aVhey
p1320
aVmakesme
p1321
aVhee
p1322
aVhen
p1323
aVbubble
p1324
aVmisss
p1325
aVlang
p1326
aVligo
p1327
aVcomplete
p1328
aVyayy
p1329
aVyaya
p1330
aVpbcontestants
p1331
aVsurvived
p1332
aVtraveleadsuk
p1333
aVmice
p1334
aVwith
p1335
aVbuying
p1336
aVhandsome
p1337
aVpull
p1338
aVrush
p1339
aVoctober
p1340
aVlana
p1341
aVrage
p1342
aVjelouse
p1343
aVxxxxxxx
p1344
aVawuna
p1345
aVagree
p1346
aVdarker
p1347
aVdetailed
p1348
aVgone
p1349
aVohh
p1350
aVgona
p1351
aVjohnny
p1352
aVexhausted
p1353
aVcertain
p1354
aVdoug
p1355
aVlahos
p1356
aVtshirt
p1357
aVcroke
p1358
aVvidic
p1359
aVwalked
p1360
aVwalks
p1361
aVwatched
p1362
aV1234mania
p1363
aVfromthe
p1364
aVcream
p1365
aVangelica
p1366
aVyoga
p1367
aVlangsung
p1368
aVgraduate
p1369
aV1111
p1370
aVtight
p1371
aVcreasy
p1372
aVyummmm
p1373
aVsomeones
p1374
aVpuppy
p1375
aVgloucestershire
p1376
aVshaun
p1377
aVgifts
p1378
aVherbs
p1379
aVaccounts
p1380
aVbrotherhood
p1381
aValbay
p1382
aVyayanijadeepal
p1383
aVtricky
p1384
aVcpm
p1385
aVmasa
p1386
aVshackells
p1387
aVsobbing
p1388
aVmask
p1389
aVhypercholesteloremia
p1390
aVhaving
p1391
aVmast
p1392
aVmass
p1393
aVadam
p1394
aVrestricted
p1395
aVcpu
p1396
aVconsider
p1397
aVbeware
p1398
aVhalsey
p1399
aVmne
p1400
aVmamayang
p1401
aVramadhan
p1402
aVchampions
p1403
aVprophets
p1404
aVtail
p1405
aVrize
p1406
aVthirstyyyy
p1407
aVsmile
p1408
aVcase
p1409
aVpamuk
p1410
aVappointment
p1411
aVdebit
p1412
aVdanny_boym
p1413
aVsaved
p1414
aVbaekhyun
p1415
aVdiary
p1416
aVhammering
p1417
aV24th
p1418
aVpilllow
p1419
aV17th
p1420
aVcable
p1421
aVpbr
p1422
aVmarvellous
p1423
aVlawnmower
p1424
aVlaying
p1425
aVdodged
p1426
aVcontectually
p1427
aVlarge
p1428
aVpedant
p1429
aVsane
p1430
aVharry
p1431
aVsmall
p1432
aVmaggie
p1433
aVquicker
p1434
aVangelos
p1435
aVfoundation
p1436
aVsrsky
p1437
aVsync
p1438
aVhealed
p1439
aVpast
p1440
aVjaycy
p1441
aVdisplays
p1442
aVsamos
p1443
aVpass
p1444
aVplsss
p1445
aVjoselito
p1446
aVsituated
p1447
aVbasara
p1448
aVrichard
p1449
aVclock
p1450
aVsection
p1451
aVmork873
p1452
aVfleur
p1453
aVnurse
p1454
aVleia
p1455
aVcontrast
p1456
aVfull
p1457
aVhash
p1458
aVchristophe
p1459
aVfave
p1460
aVhasb
p1461
aVhours
p1462
aVganda
p1463
aVedsa
p1464
aVtiis
p1465
aVbuzzing
p1466
aVb2c
p1467
aVb2b
p1468
aVtweng
p1469
aVexperience
p1470
aVpics
p1471
aVrazi
p1472
aVprior
p1473
aVhealthier
p1474
aV50p
p1475
aVpick
p1476
aVaction
p1477
aVwelder
p1478
aVstruggle
p1479
aVsobrang
p1480
aVvia
p1481
aVfollowed
p1482
aVvid
p1483
aVvii
p1484
aVvin
p1485
aVmarriages
p1486
aVfollower
p1487
aVpulls
p1488
aVgosh
p1489
aVcareer
p1490
aVselect
p1491
aVx46
p1492
aVx45
p1493
aVx43
p1494
aVx42
p1495
aVx41
p1496
aVx40
p1497
aVpearl
p1498
aVphotocards
p1499
aVzayyyyyn
p1500
aVgorgeous
p1501
aVchorong
p1502
aVbeatriz
p1503
aVcalum5sos
p1504
aVmore
p1505
aVteen
p1506
aVdoor
p1507
aVcompany
p1508
aVtested
p1509
aVheiyo
p1510
aVcoyote
p1511
aVspoile
p1512
aVdoom
p1513
aVtees
p1514
aVlotsa
p1515
aVkeeping
p1516
aVscience
p1517
aVusanele
p1518
aVresources
p1519
aVlearn
p1520
aVknocked
p1521
aVblarney
p1522
aVmale
p1523
aVgorefiend
p1524
aVbeautiful
p1525
aVmillies
p1526
aVaxio
p1527
aVscam
p1528
aVscan
p1529
aVneglected
p1530
aVaccept
p1531
aVstates
p1532
aVdonating
p1533
aVsense
p1534
aVgallon
p1535
aVdress
p1536
aVinformation
p1537
aVdazzle
p1538
aVhickey
p1539
aVxxxx
p1540
aVs02e04
p1541
aVkimaaaaaani
p1542
aVhulkamania
p1543
aVglowing
p1544
aVboooo
p1545
aVcelebratio
p1546
aVfreshly
p1547
aVhugs
p1548
aVhinanap
p1549
aVtomgt
p1550
aVplant
p1551
aVplans
p1552
aVmendes
p1553
aVpinter
p1554
aVlifeso
p1555
aVentrepreneurship
p1556
aVsoundtrack
p1557
aVplane
p1558
aVwaves
p1559
aVdaughter4yrs
p1560
aVflumekaytranadaalunageorge
p1561
aVtulane
p1562
aVtwisting
p1563
aVfuckin
p1564
aVreplied
p1565
aVito
p1566
aVjordans
p1567
aVmexican
p1568
aVsunggyu
p1569
aViti
p1570
aVnighter
p1571
aVitd
p1572
aVitb
p1573
aVtrade
p1574
aVpaper
p1575
aVsigns
p1576
aVitv
p1577
aVsmiling
p1578
aVheechul
p1579
aV490
p1580
aVits
p1581
aV9website
p1582
aVlaced
p1583
aVhappys
p1584
aVsizams
p1585
aV0725pm
p1586
aVhounds
p1587
aVwru
p1588
aValls
p1589
aVruining
p1590
aVbummer
p1591
aVknowwwww
p1592
aVisaac
p1593
aVjarraaaaa
p1594
aVtravelling
p1595
aVohmyg
p1596
aVsauce
p1597
aVally
p1598
aVtentatively
p1599
aVdipikirin
p1600
aVseverely
p1601
aVpropose
p1602
aVbuys
p1603
aVnirame
p1604
aVkbye
p1605
aVsnowball
p1606
aVolivia
p1607
aVidols
p1608
aVbuffering
p1609
aVsubtitles
p1610
aVsucked
p1611
aVreassured
p1612
aVeverytime
p1613
aValways
p1614
aVjhezz
p1615
aVjannygreen22
p1616
aVplezzzz
p1617
aVexperiencing
p1618
aVfound
p1619
aVshocking
p1620
aVreactions
p1621
aValejodoe
p1622
aVengland
p1623
aVkresna
p1624
aVmums
p1625
aVforwarding
p1626
aVgfs
p1627
aVosaka
p1628
aVeve
p1629
aVseekly
p1630
aVstrapline
p1631
aVdoses
p1632
aVblues
p1633
aVreally
p1634
aVtry
p1635
aVtanha_messiah
p1636
aVmissed
p1637
aVftw
p1638
aVblaaaaze
p1639
aVmisses
p1640
aVmassis
p1641
aVpokiri
p1642
aVoffline
p1643
aVbubba
p1644
aVsalute
p1645
aVbelieb
p1646
aVsararocs
p1647
aVdrifting
p1648
aVqualify
p1649
aV3hrs
p1650
aVimaging
p1651
aVacorn
p1652
aVimagine
p1653
aVdefinition
p1654
aVbilbao
p1655
aVjunjou
p1656
aVhimseek8
p1657
aVperformances
p1658
aVcastle
p1659
aVviathe
p1660
aVmajor
p1661
aVrecruiting
p1662
aVnumber
p1663
aVhammies
p1664
aVtato
p1665
aVfuller
p1666
aVintroduction
p1667
aVrakhi
p1668
aVthreatening
p1669
aVshaylan
p1670
aVjeb
p1671
aVnoms
p1672
aVjen
p1673
aVxiu
p1674
aVhallarkd
p1675
aVhahahays
p1676
aVrelationship
p1677
aVimmediate
p1678
aVbhook
p1679
aVstairs
p1680
aVgrace
p1681
aVobama
p1682
aVlegs
p1683
aVnoesss
p1684
aVaah
p1685
aVvocal
p1686
aVaaj
p1687
aVtummy
p1688
aVdetermined
p1689
aVemirates
p1690
aVprescott
p1691
aVbhi
p1692
aVbhk
p1693
aVdenerivery506
p1694
aVmensch
p1695
aVsmadvow544
p1696
aVbooset
p1697
aVbeforehand
p1698
aVhyungwon
p1699
aVchoreo
p1700
aVgendut
p1701
aVsell
p1702
aVubud
p1703
aVself
p1704
aVmiah
p1705
aVode
p1706
aValso
p1707
aVsalabraty
p1708
aVfrail
p1709
aVno1
p1710
aVbrace
p1711
aVplay
p1712
aVbrendon
p1713
aVsingles
p1714
aVdagga
p1715
aVbrooklyn
p1716
aVplan
p1717
aVtips
p1718
aVunderstands
p1719
aVexe
p1720
aVsometimes
p1721
aVcover
p1722
aVokie
p1723
aVlounge
p1724
aVbodies
p1725
aVexp
p1726
aVrakyat
p1727
aVraat
p1728
aVbulletin
p1729
aVheaps
p1730
aVmoodswings
p1731
aVugh
p1732
aVgolf
p1733
aVouchosteopath
p1734
aVgold
p1735
aVsession
p1736
aVnaomi
p1737
aVoverwhelmed
p1738
aVbips
p1739
aVwraps
p1740
aVburfday
p1741
aVwrites
p1742
aVwriter
p1743
aVvision
p1744
aVfailed
p1745
aVwayne
p1746
aVtwins
p1747
aVindifference
p1748
aVthobut
p1749
aVrajeevhope
p1750
aVnonmapbox
p1751
aVbanned
p1752
aVsunny
p1753
aVaarwwi
p1754
aVremedy
p1755
aVbebii
p1756
aVpreparing
p1757
aVclosely
p1758
aVdamnit
p1759
aVfrightening
p1760
aVwetherspoons
p1761
aVenemy
p1762
aVarummzz
p1763
aVjunmyeon
p1764
aVcry
p1765
aVcoord
p1766
aVbird
p1767
aVpurrthos
p1768
aVriver
p1769
aVoptouted
p1770
aVminkyuk
p1771
aVsew
p1772
aVset
p1773
aVjadi
p1774
aV310
p1775
aVstartup
p1776
aVbungie
p1777
aVsex
p1778
aVsee
p1779
aVsed
p1780
aVsea
p1781
aVcanamp39t
p1782
aVseo
p1783
aVsem
p1784
aVsel
p1785
aVknees
p1786
aVaula_jr
p1787
aVmuted
p1788
aVguinea
p1789
aVcurrently
p1790
aVelisse
p1791
aVrito
p1792
aVvdddd
p1793
aVbackstory
p1794
aVsoulmate
p1795
aVnope
p1796
aVthrive
p1797
aVaisyhhh
p1798
aVavailable
p1799
aVeuropa
p1800
aVazzsets
p1801
aVintolerant
p1802
aVsins
p1803
aVuntouched
p1804
aVincident
p1805
aVfriexs
p1806
aVcornetto
p1807
aVoutlying
p1808
aVlass
p1809
aVlast
p1810
aVthou
p1811
aVbarely
p1812
aVthos
p1813
aV630
p1814
aVconnection
p1815
aVpdf
p1816
aVkhawateen
p1817
aVwhole
p1818
aVb3dk
p1819
aVpatty
p1820
aVload
p1821
aVlicence
p1822
aVbell
p1823
aVregens
p1824
aVloan
p1825
aVsini
p1826
aVdarlene
p1827
aVleon
p1828
aVrofl
p1829
aVolly
p1830
aVluis
p1831
aVdesktop
p1832
aVuwesiti
p1833
aVlizardz
p1834
aVdevil
p1835
aVminn
p1836
aVmonthly
p1837
aVjren
p1838
aVsatire
p1839
aVhitting
p1840
aVsouthafrica
p1841
aVextravagant
p1842
aVsizwe
p1843
aVsmelly
p1844
aVfirm
p1845
aVresting
p1846
aVsweetheart
p1847
aVfire
p1848
aVaftenoon
p1849
aVfund
p1850
aVraces
p1851
aVawake
p1852
aVtowns
p1853
aVfunk
p1854
aVtweaked
p1855
aVcoveralls
p1856
aVkitchtablepro
p1857
aVstraight
p1858
aVakana
p1859
aVbudget
p1860
aVadmire
p1861
aVosad
p1862
aVprasetyoseven
p1863
aVrobin
p1864
aVswim
p1865
aVhitmarker
p1866
aVhoping
p1867
aVmotors
p1868
aVducks
p1869
aVtriple
p1870
aVprobnice
p1871
aVfunny
p1872
aVchatand
p1873
aVsounding
p1874
aV877
p1875
aVshorter
p1876
aVrules
p1877
aVshobs
p1878
aVnyesekkinn
p1879
aVbethesda
p1880
aVknitting
p1881
aVcigar
p1882
aValert
p1883
aVviewing
p1884
aVwalmart
p1885
aVnickname
p1886
aVstack
p1887
aVrecent
p1888
aVamy
p1889
aVpicky
p1890
aVmakes
p1891
aVmaker
p1892
aVflippin
p1893
aVkelly
p1894
aVknw
p1895
aVsims
p1896
aVfineandyu
p1897
aVlads
p1898
aVdurood
p1899
aVjonginuh
p1900
aVnylons
p1901
aVaahhhh
p1902
aVkaya
p1903
aVamp
p1904
aVsirf
p1905
aVunto
p1906
aVmaymay
p1907
aVdefenders
p1908
aVreaders
p1909
aVsandae
p1910
aVkissed
p1911
aVdhan
p1912
aVpillars
p1913
aVparents
p1914
aVlocation
p1915
aVcrying
p1916
aVsurprised
p1917
aVistg
p1918
aVtomas
p1919
aVindonesian
p1920
aVaustralia
p1921
aVfalcos
p1922
aVemergency
p1923
aVformat
p1924
aVcouple
p1925
aVshitty
p1926
aVsuffering
p1927
aVbaskets
p1928
aVshading
p1929
aVkahaaaa
p1930
aVprojects
p1931
aVsorting
p1932
aVveeeeerry
p1933
aVareal
p1934
aVgooday
p1935
aVlegsupthewall
p1936
aVcontinue
p1937
aVyields
p1938
aVivan
p1939
aVstylish
p1940
aVbuddies
p1941
aVcomposer
p1942
aVspring
p1943
aVpals
p1944
aVcornettos
p1945
aVtsunami
p1946
aVagayhippiehippy
p1947
aVsighs
p1948
aVmighty
p1949
aVsight
p1950
aVpala
p1951
aVcurious
p1952
aVpale
p1953
aVirresistible
p1954
aVbenefit
p1955
aVmumma
p1956
aVreligion
p1957
aVbehave
p1958
aVjokingly
p1959
aVdating
p1960
aV__________
p1961
aVsketchbook
p1962
aV645k
p1963
aVtobibro
p1964
aVproduce
p1965
aVdaysomg
p1966
aVnowhere
p1967
aVodoo
p1968
aVsanto
p1969
aVcarol
p1970
aVaswell
p1971
aVanything
p1972
aVnetflix
p1973
aVnosebleed
p1974
aVmeangt
p1975
aVdeserves
p1976
aVstuart
p1977
aVinte
p1978
aVrepair
p1979
aVclinton
p1980
aVcolorado
p1981
aVinto
p1982
aVnontrial
p1983
aVawaited
p1984
aVservers
p1985
aVappropriate
p1986
aVtroubleshooting
p1987
aVprayrs
p1988
aVumpffffff
p1989
aVkatie
p1990
aV0345
p1991
aVspam
p1992
aVmythic
p1993
aVinsonia
p1994
aVspag
p1995
aVcustom
p1996
aVsuit
p1997
aVrealmadriden
p1998
aVopens
p1999
aVdebbie
p2000
aVconsiderably
p2001
aVatlantis
p2002
aVelsewhere
p2003
aVinches
p2004
aVdongsaeng
p2005
aVposter
p2006
aVrelaxed
p2007
aVdoh
p2008
aVlink
p2009
aVkapima
p2010
aVcoldest
p2011
aVline
p2012
aVrelaxes
p2013
aVposted
p2014
aVachievedin
p2015
aVbetis
p2016
aVerica
p2017
aVdone3weeks
p2018
aVpaired
p2019
aVciv
p2020
aVmature
p2021
aVfaded
p2022
aVcontinuously
p2023
aVmarseille
p2024
aVconsumed
p2025
aVmagstart
p2026
aVgenial
p2027
aVaerial
p2028
aVdefined
p2029
aVlikewise
p2030
aVchai
p2031
aVchan
p2032
aVchal
p2033
aVchar
p2034
aVtoworry
p2035
aVchap
p2036
aVchat
p2037
aVchau
p2038
aVtakedown
p2039
aVcumbia
p2040
aVrakna
p2041
aVfixing
p2042
aVtara
p2043
aVedwards
p2044
aVinvalid
p2045
aVtard
p2046
aVmtaani
p2047
aVpoints
p2048
aVbeforeduring
p2049
aVcongraduation
p2050
aVrookieke
p2051
aVviral
p2052
aVbianca
p2053
aVpowai
p2054
aVsides
p2055
aVago
p2056
aVtexted
p2057
aValgorithm
p2058
aVagh
p2059
aVage
p2060
aVlani
p2061
aVgvb
p2062
aVhella
p2063
aVjonghyun
p2064
aVcame
p2065
aVoracle
p2066
aVfresh
p2067
aVhello
p2068
aVnoooooooo
p2069
aVfrends
p2070
aVcode
p2071
aVsquats
p2072
aVgtkw
p2073
aVresults
p2074
aVtotem
p2075
aVtavas
p2076
aVluxembourg
p2077
aVantichrist
p2078
aVgossip
p2079
aVchillin
p2080
aVbillionaires
p2081
aVseemed
p2082
aVulit
p2083
aVdroughtlinked
p2084
aVturkish
p2085
aViii
p2086
aVconcerned
p2087
aVyoung
p2088
aVsend
p2089
aVdislike
p2090
aVhints
p2091
aVachebe
p2092
aVsent
p2093
aVuploaded
p2094
aVgarden
p2095
aVtorture
p2096
aVcontinues
p2097
aVmsged
p2098
aVwipe
p2099
aVtimely
p2100
aVgoogles
p2101
aVmagic
p2102
aVbeautifulwinter
p2103
aVdeactvated
p2104
aVtransmission
p2105
aVeva
p2106
aVgettin
p2107
aVliza
p2108
aVanxious
p2109
aVpout
p2110
aVrace
p2111
aVkeeno
p2112
aVchallenge
p2113
aVpledge
p2114
aVowwww
p2115
aVeverythings
p2116
aVbiomass
p2117
aVyelaaaaaaa
p2118
aVvideo
p2119
aVodd
p2120
aVtempted
p2121
aVbaechu
p2122
aVtwine
p2123
aVyein
p2124
aVselway
p2125
aVsweaty
p2126
aVbestfriends
p2127
aVindian
p2128
aVsooooooooo
p2129
aVyippeee
p2130
aVflowing
p2131
aV1400
p2132
aVzdps
p2133
aVtwinx
p2134
aVwhsmith
p2135
aVwooftastic
p2136
aVled
p2137
aVlee
p2138
aVchinas
p2139
aVleg
p2140
aVleh
p2141
aVleo
p2142
aVlet
p2143
aVhoweasyget
p2144
aVlew
p2145
aVsugaralmost
p2146
aVanot
p2147
aVvinegar
p2148
aVgreat
p2149
aVbiodiversity
p2150
aVreceive
p2151
aVmixcloud
p2152
aVrdd
p2153
aVeunji
p2154
aVcousins
p2155
aVpopcorn
p2156
aVopinion
p2157
aVresidents
p2158
aVstephanie
p2159
aVexplain
p2160
aVthats
p2161
aVmasud
p2162
aVinfrastructureteachersdoctorsnursesparamedicsampother
p2163
aV333
p2164
aVmariners
p2165
aVemon
p2166
aVreckon
p2167
aVdumbest
p2168
aVnibbling
p2169
aVtools
p2170
aVicum_thrice
p2171
aVstanding
p2172
aVchocolatey
p2173
aVconfidence
p2174
aVchocolates
p2175
aVsazballs
p2176
aVtheme
p2177
aVnext
p2178
aVmcountdown
p2179
aVdoubt
p2180
aVhearess677
p2181
aVchenab
p2182
aVmidday
p2183
aVrick
p2184
aVpfb
p2185
aVbabe
p2186
aVsg1
p2187
aVoccurred
p2188
aVsoooooooo
p2189
aVjillmill19
p2190
aVrubbish
p2191
aVbaby
p2192
aVgladly
p2193
aVelhaida
p2194
aVcharity
p2195
aVcustomer
p2196
aVthiz
p2197
aVpracticing
p2198
aVthis
p2199
aVathlete
p2200
aVclients
p2201
aVprompts
p2202
aVthin
p2203
aVulolwanna
p2204
aVfulfill
p2205
aVcampsites
p2206
aVbend
p2207
aVbloating
p2208
aVweaker
p2209
aVbent
p2210
aVprocess
p2211
aVlock
p2212
aVpromotional
p2213
aVhigh
p2214
aVstreamer
p2215
aVslip
p2216
aVflaviana
p2217
aVsengenza
p2218
aVdestroying
p2219
aVdelay
p2220
aVanimal
p2221
aVhnnnnnnn
p2222
aVcomedy
p2223
aVintelligent
p2224
aVsrw
p2225
aVblocks
p2226
aVshiiit
p2227
aVayala
p2228
aVawait
p2229
aV4piece
p2230
aVpigs
p2231
aVevry
p2232
aVfits
p2233
aViplayer
p2234
aVhawk
p2235
aVrealized
p2236
aV22nd
p2237
aVbackup
p2238
aVreminders
p2239
aVrobot
p2240
aVjames_yammouni
p2241
aVnancy
p2242
aVclassy
p2243
aVjebbush
p2244
aVcounted
p2245
aVhouston
p2246
aVlami
p2247
aVx15329
p2248
aVx15328
p2249
aVproducer
p2250
aVyoun
p2251
aVx15325
p2252
aVx15324
p2253
aVsubdivision
p2254
aVmove
p2255
aVx15321
p2256
aVx15320
p2257
aVx15323
p2258
aVjoerine
p2259
aVdhis
p2260
aVmutt
p2261
aVchoregrapher
p2262
aVvolta
p2263
aVtweetin
p2264
aVperfect
p2265
aVchaerin
p2266
aVchosen
p2267
aVresponsibilities
p2268
aVdegrees
p2269
aV2015
p2270
aVhobby
p2271
aV2017
p2272
aV2016
p2273
aV90210
p2274
aV2013
p2275
aVcusp
p2276
aVdesigns
p2277
aVjareddddd
p2278
aVingat
p2279
aVkisi
p2280
aVbat
p2281
aVdresscode
p2282
aVsnake
p2283
aVkiss
p2284
aVearthlings
p2285
aVrotation
p2286
aVcage
p2287
aVrealize
p2288
aVrantie
p2289
aVdelightful
p2290
aVgoodtime
p2291
aVbetty
p2292
aVtruth
p2293
aVcouncillors
p2294
aVscorch
p2295
aVglasses
p2296
aVmanthan
p2297
aVshower
p2298
aVrobinhoodies
p2299
aVdoing
p2300
aVdissappeared
p2301
aVhilife
p2302
aVlungomare
p2303
aVsociety
p2304
aVbooks
p2305
aVyummyjust
p2306
aVmeth
p2307
aVdiffer
p2308
aVyouu
p2309
aVshannon
p2310
aVagainensoi
p2311
aVnowadays
p2312
aVhive
p2313
aVcess
p2314
aVfavours
p2315
aVhilarious
p2316
aVunprepared
p2317
aVarchitecture
p2318
aVbuuuuuuuut
p2319
aVentlerbountly
p2320
aVshut
p2321
aVwallpaper
p2322
aVinteractions
p2323
aVyawns
p2324
aVkalle
p2325
aVshud
p2326
aVsurely
p2327
aVuppe
p2328
aVlatest
p2329
aVcraving
p2330
aVscary
p2331
aVlinguist
p2332
aVspill
p2333
aVdubbed
p2334
aVcould
p2335
aVm20
p2336
aVirking
p2337
aVdavid
p2338
aVvanillaas
p2339
aVbeyt3a2ad
p2340
aVfrens
p2341
aVchills
p2342
aVthankssss
p2343
aVfollowingg
p2344
aVspilt
p2345
aVkendall
p2346
aVplatonic
p2347
aVendowments
p2348
aVpines
p2349
aV453
p2350
aV454
p2351
aVscene
p2352
aVowned
p2353
aVjesus
p2354
aVyello
p2355
aVstark
p2356
aVowner
p2357
aVkhany
p2358
aVopportune
p2359
aVmelodys
p2360
aVsharon
p2361
aVcuticle
p2362
aVlos
p2363
aVfestival
p2364
aVbehaves
p2365
aVsystem
p2366
aVopossum
p2367
aVpainful
p2368
aVgrated
p2369
aVedomnt
p2370
aVstomach
p2371
aVstars
p2372
aVshorts
p2373
aVgotcha
p2374
aVmegan
p2375
aVargos
p2376
aVdepressing
p2377
aVgrandpa
p2378
aVanyones
p2379
aVelite
p2380
aVsteel
p2381
aVwahhh
p2382
aVgayi
p2383
aVwarfare
p2384
aVsplit
p2385
aVgaya
p2386
aVwoodford
p2387
aVpads
p2388
aVhampm
p2389
aVroberts
p2390
aVappealing
p2391
aVsorelike
p2392
aVitchy
p2393
aVhatreds
p2394
aVokkay
p2395
aVfalse
p2396
aVviewer
p2397
aVtrusting
p2398
aVpartnership
p2399
aVfanbase
p2400
aVtonight
p2401
aVreceptionist
p2402
aVclearly
p2403
aVviewed
p2404
aV2weeks
p2405
aVlile
p2406
aVx15349
p2407
aVresigned
p2408
aVmillz
p2409
aVsoak
p2410
aV4000
p2411
aVstudying
p2412
aVmarais
p2413
aVdianes
p2414
aVvineswith
p2415
aVlils
p2416
aVchibi
p2417
aVlinda
p2418
aVkorean
p2419
aVthtas
p2420
aVworldwide
p2421
aVallow
p2422
aVvist
p2423
aVmanos
p2424
aVgishwhes
p2425
aVeyeliner
p2426
aVvisa
p2427
aVnegotiate
p2428
aVdevice
p2429
aVfack
p2430
aVtobermory
p2431
aVstronger
p2432
aVface
p2433
aVreaapearing
p2434
aVwounded
p2435
aVpainting
p2436
aVfact
p2437
aVtaybigail
p2438
aVoreos
p2439
aVfullfledged
p2440
aVdbn
p2441
aVlmaoo
p2442
aVassholes
p2443
aVbring
p2444
aVbiker
p2445
aVmanchester
p2446
aVpostcode
p2447
aVrough
p2448
aVprincipal
p2449
aVmashaket
p2450
aVpodcast
p2451
aVjax
p2452
aVjay
p2453
aVjaw
p2454
aVkuchar
p2455
aVshould
p2456
aVterminal
p2457
aVplanted
p2458
aVjah
p2459
aVjai
p2460
aVoopsthats
p2461
aVriding
p2462
aVcinepambata
p2463
aVx15327
p2464
aVshauri
p2465
aVmeant
p2466
aVjacqueline
p2467
aVinsight
p2468
aVhandle
p2469
aVsweetie
p2470
aVmeans
p2471
aVfamiliar
p2472
aVltltltltltltltltltlt
p2473
aVlucky
p2474
aVmeand
p2475
aVstetsons
p2476
aVsuckmejimin
p2477
aVx15322
p2478
aVsimpin
p2479
aVabby
p2480
aV1020
p2481
aVgrrrr
p2482
aVpayhour
p2483
aVyaadein
p2484
aVdenmark
p2485
aVrapper
p2486
aVhugged
p2487
aVtaxes
p2488
aVstuff
p2489
aVdallas
p2490
aVtmwuwuwell
p2491
aV360hrs
p2492
aVtaxed
p2493
aVbtu
p2494
aVguessing
p2495
aVbtw
p2496
aVinjurys
p2497
aV2indirag
p2498
aVbts
p2499
aVwarrior
p2500
aVbucket
p2501
aVheartburn
p2502
aVlazy
p2503
aVedition
p2504
aVoomf
p2505
aVchurro
p2506
aVpacked
p2507
aVerror
p2508
aVyodel
p2509
aVjurassic
p2510
aVnuclear
p2511
aVwirh
p2512
aVhorny
p2513
aVyass
p2514
aVquickest
p2515
aVinjustice
p2516
aVyasu
p2517
aVmtnza
p2518
aVyoull
p2519
aVemail
p2520
aVgreatful
p2521
aVends
p2522
aVapmas
p2523
aVbuttt
p2524
aVbilal
p2525
aVafridi
p2526
aVstaring
p2527
aVmarty
p2528
aVfigured
p2529
aVinvited
p2530
aVetc
p2531
aVnewbies
p2532
aVfigures
p2533
aVbristol
p2534
aVramd
p2535
aVpuff
p2536
aVetl
p2537
aVgooood
p2538
aVtoilet
p2539
aVgooooo
p2540
aVmigrant
p2541
aVnjoy
p2542
aVcba
p2543
aVucl
p2544
aVekyokokuali
p2545
aVlangkawi
p2546
aVyeol
p2547
aVapologize
p2548
aVtaste
p2549
aVdrank
p2550
aVboyirl
p2551
aVutilizing
p2552
aVwaste
p2553
aVughtmed545
p2554
aVkaha
p2555
aVhomosexual
p2556
aVmeningitis
p2557
aV1200
p2558
aVneighbour
p2559
aVnickyyyyyyyyyyyyyyyy
p2560
aVaccident
p2561
aVelmhurst
p2562
aVgraphics
p2563
aVspain
p2564
aVjotzh
p2565
aVimpressivewhat
p2566
aVrunway
p2567
aVrbi
p2568
aVhahaha
p2569
aVpictures
p2570
aVbathtub
p2571
aVswiftmas
p2572
aVlush
p2573
aVsite
p2574
aVheating
p2575
aVmockingbird
p2576
aVsits
p2577
aVconserve
p2578
aVtatton
p2579
aVtattoo
p2580
aVexhausting
p2581
aVhumse
p2582
aVjuan
p2583
aVtaknottem477
p2584
aVromance
p2585
aVmatthew
p2586
aVglares
p2587
aVandroid
p2588
aVjumma
p2589
aVincorrect
p2590
aVball
p2591
aVfna
p2592
aVemotionally
p2593
aVphl
p2594
aVfiesta
p2595
aVbale
p2596
aVdrink
p2597
aVupon
p2598
aVcoffe
p2599
aVthks
p2600
aVforehead
p2601
aVinfinite
p2602
aVikea
p2603
aVphp
p2604
aVidentity
p2605
aVofc
p2606
aVoff
p2607
aVcolour
p2608
aVindonesia
p2609
aVtalkback
p2610
aVcutting
p2611
aV350
p2612
aVaudio
p2613
aVdrawing
p2614
aVbothering
p2615
aVlest
p2616
aVnewest
p2617
aVlegendary
p2618
aVless
p2619
aVmoments
p2620
aVwhyyyyyy
p2621
aVmomenti
p2622
aVvideoburnt
p2623
aVmajhwar
p2624
aVpaul
p2625
aVdeborah
p2626
aVtalkmobile
p2627
aVx15326
p2628
aVweb
p2629
aV225k
p2630
aVwed
p2631
aVweh
p2632
aVganna
p2633
aVcombine
p2634
aVwet
p2635
aVmh3
p2636
aVsexyjane19
p2637
aVgovernment
p2638
aVchecking
p2639
aVpyaari
p2640
aVplushes
p2641
aVfive
p2642
aVnva
p2643
aVdesk
p2644
aVhehehehe
p2645
aVgenes
p2646
aVnvm
p2647
aVtick
p2648
aVpier
p2649
aVhauc
p2650
aVdebatable
p2651
aVbenadryl
p2652
aVemma
p2653
aVchairs
p2654
aVhhahahahaha
p2655
aVcosas
p2656
aVgarage
p2657
aVacha
p2658
aVbecome
p2659
aVreplacement
p2660
aVmohr
p2661
aVlifeyoure
p2662
aVnajam
p2663
aVcider
p2664
aVfootage
p2665
aVbriefly
p2666
aVnobodies
p2667
aV12pm
p2668
aVmenille
p2669
aVgymnastics
p2670
aVchoosing
p2671
aVyayayayay
p2672
aVhissing
p2673
aVjojo
p2674
aVplawnew837
p2675
aVliterally
p2676
aVavoid
p2677
aVstocko
p2678
aVafterwork
p2679
aVfandoms
p2680
aVswifties
p2681
aVwoohoo
p2682
aVpassion
p2683
aVganteng
p2684
aVdonghyuk
p2685
aVforgiven
p2686
aVkiddo
p2687
aVblurry
p2688
aVblowing
p2689
aVawhhh
p2690
aVschedule
p2691
aVpeep
p2692
aVchaddi
p2693
aVfriyay
p2694
aVfra
p2695
aVpressure
p2696
aVhiding
p2697
aVgained
p2698
aVescuchando
p2699
aVsister
p2700
aVnessa_mbeki
p2701
aVslayed
p2702
aVgundam
p2703
aVmeray
p2704
aVseeds
p2705
aVvivians
p2706
aVdocumentary
p2707
aVswimming
p2708
aVpussy
p2709
aVoscarmbo
p2710
aVyesha
p2711
aV87000
p2712
aVmeri
p2713
aVscones
p2714
aVcamden
p2715
aVtheyd
p2716
aVroads
p2717
aVswimmers
p2718
aVafoot
p2719
aVmere
p2720
aVnegotiable
p2721
aVadvert
p2722
aVohaha
p2723
aV2k15
p2724
aVbeginner
p2725
aVhehe
p2726
aVannabel
p2727
aVhousing
p2728
aVpairing
p2729
aVspots
p2730
aVivypowel19
p2731
aVstamina
p2732
aVyeeeeyyy
p2733
aVmarshmallow
p2734
aVyrs
p2735
aVnpal
p2736
aVsteelbook
p2737
aVstorymiss
p2738
aVbother
p2739
aVdelivery
p2740
aVprivilege
p2741
aVlowered
p2742
aVgatlinho
p2743
aVcount
p2744
aVmerdeka
p2745
aVplaces
p2746
aVbumi
p2747
aVurwelc
p2748
aVofficial
p2749
aVsmooth
p2750
aVwhatevs
p2751
aVr2d2
p2752
aVveges
p2753
aVexcitement
p2754
aVconvince
p2755
aVproblem
p2756
aVyuki
p2757
aVsajidislam
p2758
aVirish
p2759
aVcontribute
p2760
aVordering
p2761
aVpely829
p2762
aVbarcelona
p2763
aVink
p2764
aVsambal
p2765
aVagains
p2766
aVanesthesia
p2767
aVinc
p2768
aVplanting
p2769
aVcompared
p2770
aVvariety
p2771
aVforests
p2772
aVlately
p2773
aVcorey
p2774
aVonboard
p2775
aVwitness
p2776
aVhpc
p2777
aViove
p2778
aVrepeat
p2779
aVmonday
p2780
aVmanteca
p2781
aVforsaken
p2782
aVgenad
p2783
aVchance
p2784
aVcalum
p2785
aVrescoops
p2786
aVbadass
p2787
aVvsco
p2788
aVexposure
p2789
aVghost
p2790
aVbatting
p2791
aVgooooooo
p2792
aVdota
p2793
aVcompete
p2794
aVpension
p2795
aVgardens
p2796
aVwaah
p2797
aVbuff
p2798
aVciao
p2799
aVsaves
p2800
aVentropy
p2801
aVcreta
p2802
aVrelationships
p2803
aVbaloch
p2804
aVblackfly
p2805
aVtickle
p2806
aVfucjikg
p2807
aVharryxhood
p2808
aVedward
p2809
aVvoted
p2810
aVjosephines
p2811
aVworth
p2812
aVpartys
p2813
aVbrolly
p2814
aVavril
p2815
aVyeeeey
p2816
aVpenny
p2817
aVpta
p2818
aVjacob
p2819
aVboy_hugots
p2820
aVtickets
p2821
aVrefollow
p2822
aVcmc
p2823
aVupload
p2824
aVrelentlessly
p2825
aVhumidity
p2826
aVbakewell
p2827
aVmath
p2828
aVufffff
p2829
aVsachin
p2830
aVonkey
p2831
aVgalat
p2832
aVspeck
p2833
aV29th
p2834
aVphones
p2835
aVskyfall
p2836
aVbubbling
p2837
aVbrill
p2838
aVhelpinggroupdms
p2839
aVabuti
p2840
aV7th
p2841
aVchel
p2842
aVchem
p2843
aVpanda
p2844
aVassiamain
p2845
aVeveryones
p2846
aVcooperating
p2847
aVbabeeeee
p2848
aV02392441234
p2849
aVdheena
p2850
aVlessions
p2851
aVabove
p2852
aVtoll
p2853
aVzoomed
p2854
aVhatessuce32429
p2855
aVofficially
p2856
aVpetra
p2857
aVtold
p2858
aVtommyy
p2859
aVfestive
p2860
aVltff__special
p2861
aVprotection
p2862
aVcelebration
p2863
aVsighssss
p2864
aVbeive
p2865
aVdaughter
p2866
aVglo
p2867
aVgla
p2868
aVstudy
p2869
aVsocialwebsite
p2870
aVaku
p2871
aVitunes
p2872
aVaki
p2873
aVako
p2874
aVsmoke
p2875
aVstressed
p2876
aVaka
p2877
aVmerchs
p2878
aVenvious
p2879
aVsecure
p2880
aVspooky
p2881
aVbro
p2882
aVinsta
p2883
aVopportunities
p2884
aVbri
p2885
aVtotal
p2886
aVbrb
p2887
aVbra
p2888
aVsarah
p2889
aVaitchison
p2890
aVrancho
p2891
aVsaran
p2892
aVfagans
p2893
aVsweater
p2894
aVcoins
p2895
aVaaron
p2896
aVseriously
p2897
aVindiana
p2898
aVsaras
p2899
aVkiligs
p2900
aVseparated
p2901
aVspeced
p2902
aVhaha
p2903
aVaward
p2904
aVpierced
p2905
aVswitinno
p2906
aVenji
p2907
aVblocking
p2908
aV1620
p2909
aVword
p2910
aVwore
p2911
aVshame
p2912
aVwork
p2913
aVworm
p2914
aVsunnys
p2915
aVtheories
p2916
aVcuddle
p2917
aVtinder
p2918
aVera
p2919
aVtnc
p2920
aVelbow
p2921
aVerm
p2922
aVuntangling
p2923
aVsplendour
p2924
aVsleeeep
p2925
aVuggghhhh
p2926
aVgoood
p2927
aVlooooong
p2928
aVpaperwhites
p2929
aVindie
p2930
aVcited
p2931
aVindia
p2932
aVindies
p2933
aV452096
p2934
aVpliss
p2935
aVsone
p2936
aVmisserable
p2937
aVfileclickprint
p2938
aVprovide
p2939
aVverify
p2940
aVzzzz
p2941
aVhihihi
p2942
aVmlady
p2943
aVfar
p2944
aVwomad
p2945
aVinterview
p2946
aVdisappoint
p2947
aVordinary
p2948
aVbeach
p2949
aVpizza
p2950
aVgrown
p2951
aVlan
p2952
aVadis
p2953
aVlah
p2954
aVdoable
p2955
aVabscess
p2956
aVbday
p2957
aVladder
p2958
aVafter
p2959
aVdamaged
p2960
aVlab
p2961
aVwhytahuodyy
p2962
aVlay
p2963
aVcoughartofsleepingincough
p2964
aVlaw
p2965
aVlap
p2966
aVlas
p2967
aVchilled
p2968
aVappreciate
p2969
aVgreet
p2970
aVsupermarkets
p2971
aVgreek
p2972
aVgreen
p2973
aVscarf
p2974
aVworst
p2975
aVatrocity
p2976
aVorder
p2977
aVmps
p2978
aVriri
p2979
aVsalon
p2980
aVoffice
p2981
aVdirtiest
p2982
aVconsent
p2983
aVzen
p2984
aVsatisfied
p2985
aVawful
p2986
aV0115am
p2987
aVjapan
p2988
aVticket
p2989
aVappeasement
p2990
aVsomewhere
p2991
aVhighlights
p2992
aVmasterchef
p2993
aVtittheir42
p2994
aVbelly
p2995
aVtheo
p2996
aVthen
p2997
aVthem
p2998
aVcollagen
p2999
aVthek
p3000
aVbabies
p3001
aVericavan18
p3002
aVhopeyou
p3003
aVsafe
p3004
aVmisspelt
p3005
aVcuties
p3006
aVbreak
p3007
aVband
p3008
aVroommate
p3009
aVbana
p3010
aVthey
p3011
aVnicebut
p3012
aVpayback
p3013
aVsoothing
p3014
aVbani
p3015
aVbank
p3016
aVbread
p3017
aVbackgrounds
p3018
aVrocks
p3019
aVtogheter
p3020
aVpgs
p3021
aVeventsbreastcancernoworg
p3022
aVthaaaat
p3023
aVreallypraisekingdavid
p3024
aVnt4
p3025
aVpissbaby
p3026
aVhosted
p3027
aVlogo
p3028
aVadoohh
p3029
aVmonteith
p3030
aValansmithpart2
p3031
aVnetwork
p3032
aVwgm
p3033
aVrted
p3034
aVmegafauna
p3035
aVtrainers
p3036
aVdaniel
p3037
aVskyblock
p3038
aVmedicine
p3039
aVforth
p3040
aVsliding
p3041
aVhogan
p3042
aVleftovers
p3043
aVfineeeeeeeee
p3044
aVstandard
p3045
aVnth
p3046
aVappointments
p3047
aVlollipop
p3048
aVmonkey
p3049
aVange
p3050
aVdammit
p3051
aVsprit
p3052
aVtyas
p3053
aVyeeeeah
p3054
aVharrogate
p3055
aVflawless
p3056
aVrenew
p3057
aVtrafficccccccc
p3058
aVoppose
p3059
aVumaru
p3060
aVdelved
p3061
aVmvg
p3062
aVbulet
p3063
aVchopped
p3064
aVbohol
p3065
aVhamstring
p3066
aVells
p3067
aVac45
p3068
aVnaggreet
p3069
aVanother
p3070
aVtykksin
p3071
aVcomic
p3072
aVtope
p3073
aVunparents
p3074
aVacads
p3075
aVlikely
p3076
aVanotur
p3077
aVleggete
p3078
aVvagina
p3079
aVapproximately
p3080
aVrepacks
p3081
aVairs
p3082
aVplugdj
p3083
aVsbali
p3084
aVdifficiency
p3085
aVjohn
p3086
aVdogs
p3087
aVhappily
p3088
aVrejected
p3089
aVrobyn
p3090
aVnamin
p3091
aVkahfi
p3092
aVwasted
p3093
aVbebe
p3094
aVmercy
p3095
aVtarget
p3096
aVdigitals
p3097
aVscenes
p3098
aVebay
p3099
aVmerch
p3100
aVmerci
p3101
aVtipping
p3102
aVhologram
p3103
aVliceooooo
p3104
aVsjkaos
p3105
aVmathird
p3106
aVmadrid
p3107
aVnavigate
p3108
aVjointit
p3109
aVfandom
p3110
aVinfront
p3111
aVshiatsu
p3112
aVcontents
p3113
aVforced
p3114
aVstrength
p3115
aVgenuine
p3116
aVrealy
p3117
aVsubjects
p3118
aVluxury
p3119
aVbh3s
p3120
aVcompleted
p3121
aVaspetti
p3122
aVweeding
p3123
aVbruce
p3124
aViceland
p3125
aVebook
p3126
aVsue
p3127
aVanatomy
p3128
aVoptimized
p3129
aVhahathat
p3130
aVgermany
p3131
aVphase
p3132
aVproverb
p3133
aVbeatport
p3134
aV800
p3135
aVfollback
p3136
aValumni
p3137
aVsxxx
p3138
aVjudgmental
p3139
aVaunt
p3140
aVdeeply
p3141
aVvoting
p3142
aVnotion
p3143
aVbonasio
p3144
aVreserve
p3145
aVyoult33
p3146
aVlewis
p3147
aVtexistes
p3148
aVbrief
p3149
aVdassy
p3150
aVsubtle
p3151
aVenjoyed
p3152
aVchweina
p3153
aVtoast
p3154
aVobakeng
p3155
aVphotobomb
p3156
aVdoidos
p3157
aVbrotheeeeerrrr
p3158
aVskye
p3159
aVhrs
p3160
aVminion
p3161
aVwarmest
p3162
aVpersonality
p3163
aVuncountable
p3164
aVsabal_abla
p3165
aVtoneady46532
p3166
aVsweetpea
p3167
aVpreferred
p3168
aVgreys
p3169
aVhappiest
p3170
aVpeyton
p3171
aVruns
p3172
aVpearson
p3173
aVemc
p3174
aVcovering
p3175
aVemm
p3176
aVemo
p3177
aVemu
p3178
aV415
p3179
aVhumanist
p3180
aVems
p3181
aVtrion
p3182
aVsteak
p3183
aVsteam
p3184
aVscrubbed
p3185
aV9dg
p3186
aVdepends
p3187
aVhorrendous
p3188
aVdiscussions
p3189
aVmiserable
p3190
aVo_o
p3191
aVtechniques
p3192
aVsadomasochistsparadise
p3193
aVpropa
p3194
aVmitch
p3195
aVaway
p3196
aVhtaccess
p3197
aVepetitions
p3198
aVbien
p3199
aVunable
p3200
aVdivinediscontentthe
p3201
aVawak
p3202
aVmustbe
p3203
aVpfft
p3204
aVmis15
p3205
aVterms
p3206
aVslovakias
p3207
aVbelfast
p3208
aVkitchen
p3209
aVreceived
p3210
aVcos
p3211
aVcow
p3212
aVbrat
p3213
aVsquishy
p3214
aVill
p3215
aVcoz
p3216
aVcod
p3217
aVpinay
p3218
aVbrad
p3219
aVrequests
p3220
aVcom
p3221
aVmethings
p3222
aVily
p3223
aVpeacefully
p3224
aVcollecting
p3225
aVeyesight
p3226
aVtough
p3227
aV0272
p3228
aVtong
p3229
aVgodbless
p3230
aVtoni
p3231
aVroyal
p3232
aVevelineconrade
p3233
aVtony
p3234
aVspeak
p3235
aVjapans
p3236
aVtolerates
p3237
aVbelieber
p3238
aVtragedy
p3239
aVsleepover
p3240
aVcereal
p3241
aVflexible
p3242
aVthrice
p3243
aVsuperpowers
p3244
aVinnocent
p3245
aVrelaxing
p3246
aVattacked
p3247
aV2425
p3248
aVlendal
p3249
aVpleasse
p3250
aVbachpan
p3251
aVbna
p3252
aVcurrys
p3253
aVgracious
p3254
aVgnr
p3255
aVeast
p3256
aVrepack
p3257
aVcwnt
p3258
aVgoonrgrrl
p3259
aVair
p3260
aVain
p3261
aVabrupt
p3262
aVapplies
p3263
aVvoice
p3264
aVinspired
p3265
aVlaunched
p3266
aVmistake
p3267
aVnonfilipina
p3268
aVcont
p3269
aVhave
p3270
aVeeeep
p3271
aVsticker
p3272
aVstandby
p3273
aVbrake
p3274
aVgtdaianerufatolt
p3275
aVcomparative
p3276
aVdandia
p3277
aVcongrtaualtions
p3278
aVperform
p3279
aVsaklap
p3280
aVmyungsoo
p3281
aVsyncs
p3282
aVlyka
p3283
aVsakura
p3284
aVnagsend
p3285
aVconvictions
p3286
aVsurvival
p3287
aVwheel
p3288
aVindependent
p3289
aVily2
p3290
aVraid
p3291
aVnil
p3292
aVnim
p3293
aVnic
p3294
aVswell
p3295
aVbalkan
p3296
aVhang
p3297
aVevil
p3298
aVhand
p3299
aVpubs
p3300
aVnorwegian
p3301
aVfuse
p3302
aVearlobes
p3303
aVraiz
p3304
aVsaaaad
p3305
aVmcnuggets
p3306
aVdhaka
p3307
aVmotilium
p3308
aVkept
p3309
aVdishes
p3310
aVthy
p3311
aVthx
p3312
aVthw
p3313
aV1600
p3314
aVcongrats
p3315
aVths
p3316
aVeps
p3317
aVthq
p3318
aVoptions
p3319
aVtho
p3320
aVcontact
p3321
aVmamma
p3322
aVrizal
p3323
aVepi
p3324
aVthe
p3325
aVcamps
p3326
aVjangly
p3327
aVtha
p3328
aVkepo
p3329
aVkale
p3330
aVphoto
p3331
aVquotes
p3332
aVthanks
p3333
aVmampms
p3334
aVadding
p3335
aVshoud
p3336
aVhills
p3337
aVgot
p3338
aVlove4wilde
p3339
aVphotographer
p3340
aVjosh
p3341
aVhilly
p3342
aVsuddenly
p3343
aVshout
p3344
aVspread
p3345
aVboard
p3346
aVonpack
p3347
aVexpelled
p3348
aVkaaaa
p3349
aVfollowback
p3350
aVaraw
p3351
aVproblemmmmmmm
p3352
aVcortezsuperstars
p3353
aVadmin_myung
p3354
aVkfcroleplayers
p3355
aVsuks
p3356
aVyeols
p3357
aVwhomosexual
p3358
aVgtmj
p3359
aVtenyai
p3360
aVglitch
p3361
aVkillua
p3362
aVifeelyou
p3363
aVtebow
p3364
aVtheyre
p3365
aVbps
p3366
aVgandhi
p3367
aVsparse
p3368
aVnight
p3369
aVsecurity
p3370
aV18k
p3371
aVhonored
p3372
aVfatmam
p3373
aVoooooooooohh
p3374
aVsends
p3375
aVeyeing
p3376
aVborn
p3377
aVdedicating
p3378
aVmaccies
p3379
aVwebz
p3380
aVbore
p3381
aVconfusing
p3382
aVjisung
p3383
aVhumor
p3384
aVpurple
p3385
aVphenomenal
p3386
aVmcfloat
p3387
aVcomments
p3388
aVfilming
p3389
aVasking
p3390
aVhonoured
p3391
aVadorable
p3392
aVpeek
p3393
aVnamedescription
p3394
aVimrizzagaddi
p3395
aVpls
p3396
aVjamielee
p3397
aVmarketing
p3398
aVpose
p3399
aVplz
p3400
aVply
p3401
aVconstructive
p3402
aVsadis
p3403
aVphew
p3404
aVgdcegamescom
p3405
aVsubstitution
p3406
aVgraduated
p3407
aVmagcon
p3408
aVpost
p3409
aVpll
p3410
aVproperties
p3411
aVsapiosexual
p3412
aVobi
p3413
aVtheirs
p3414
aVmohapatra
p3415
aVmonths
p3416
aVanime
p3417
aVcherish
p3418
aVhashtaggt
p3419
aVobs
p3420
aVtonights
p3421
aVmethey
p3422
aVwinehouse
p3423
aVwasting
p3424
aVfloat
p3425
aVdelighted
p3426
aVsamei
p3427
aVfavs
p3428
aVpaya
p3429
aVstumble
p3430
aVagonising
p3431
aVstrangely
p3432
aVwan
p3433
aVahahah
p3434
aVwah
p3435
aVwag
p3436
aVwae
p3437
aVwaa
p3438
aVfight
p3439
aV221b
p3440
aVnonot
p3441
aVway
p3442
aVwat
p3443
aVwas
p3444
aVwar
p3445
aVlowest
p3446
aVizumi
p3447
aVpirouette
p3448
aVbecoming
p3449
aVcrys
p3450
aVusiran
p3451
aVcryd
p3452
aVtrue
p3453
aVunsuccessful
p3454
aVabsent
p3455
aVisis
p3456
aVgetaway
p3457
aVmtr
p3458
aVcrystal
p3459
aVmtn
p3460
aVfaking
p3461
aVemotional
p3462
aVwhyd
p3463
aVchanelburberryprada
p3464
aVoptimisation
p3465
aVmtg
p3466
aVemoticon
p3467
aVmedication
p3468
aVltlt
p3469
aVmoore
p3470
aVtryna
p3471
aVrequest
p3472
aVbtwn
p3473
aVguessed
p3474
aVpromised
p3475
aVyahuda
p3476
aVluffs
p3477
aVphysical
p3478
aVbaechyyy
p3479
aVdying
p3480
aVtopped
p3481
aVinterested
p3482
aVjong
p3483
aVholding
p3484
aVtest
p3485
aVzikra
p3486
aVgkeep
p3487
aVscored
p3488
aVbellevue
p3489
aVbrothers
p3490
aVjuices
p3491
aVwelcome
p3492
aVpolite
p3493
aVscores
p3494
aVskinny
p3495
aVhiii
p3496
aVcheated
p3497
aVhiim
p3498
aVcocoared
p3499
aVddddddd
p3500
aVtogether
p3501
aVplanks
p3502
aVloyal
p3503
aVx15348
p3504
aVtweetlandlol
p3505
aVclassmate
p3506
aVx15343
p3507
aVx15342
p3508
aVx15341
p3509
aVlineup
p3510
aVx15347
p3511
aVx15346
p3512
aVx15345
p3513
aVsongs
p3514
aVconcept
p3515
aVswitched
p3516
aVdance
p3517
aVsogok
p3518
aVgrateful
p3519
aVmbasa
p3520
aV_gta_giveaway
p3521
aVkeybind
p3522
aVcertainly
p3523
aVhurry
p3524
aVzone
p3525
aV325000
p3526
aVflash
p3527
aVgigs
p3528
aVgigi
p3529
aVglad
p3530
aVcouscous
p3531
aVtaissa
p3532
aVbrown
p3533
aVsupported
p3534
aVpublilius
p3535
aV3am
p3536
aV333505
p3537
aVhannah
p3538
aVvegas
p3539
aVanonymous
p3540
aVentries
p3541
aVpacopy
p3542
aVblast
p3543
aVbrows
p3544
aVfuncionar
p3545
aVgua
p3546
aVkurtas
p3547
aVgue
p3548
aVgud
p3549
aValtering
p3550
aVturns
p3551
aVfragile
p3552
aVgun
p3553
aVgum
p3554
aVsoooo
p3555
aVoffering
p3556
aVguy
p3557
aVupper
p3558
aVbrave
p3559
aVregret
p3560
aVbravo
p3561
aVgrigsons
p3562
aVdiscover
p3563
aVifsc
p3564
aVcost
p3565
aVflasback
p3566
aVcosy
p3567
aVlmbo
p3568
aVappear
p3569
aVoffended
p3570
aVmarrickville
p3571
aVshares
p3572
aVuniform
p3573
aV1100d
p3574
aVshared
p3575
aV1016
p3576
aVappeal
p3577
aV1010
p3578
aVpictwittercomjxz2lbv6o
p3579
aVsatisfy
p3580
aVsupporting
p3581
aValing
p3582
aVchangs
p3583
aVigbo
p3584
aVpeeled
p3585
aVspinny
p3586
aVdownloaded
p3587
aVdidnot
p3588
aVgilet
p3589
aVrlyyyy
p3590
aVgotdamn
p3591
aVappears
p3592
aVchange
p3593
aVsending
p3594
aVincoming
p3595
aVyulin
p3596
aVpleaseee
p3597
aVvibrating
p3598
aVtwelvyy
p3599
aV5ever
p3600
aVtrial
p3601
aVburdensome
p3602
aVusually
p3603
aV430
p3604
aVlmfaoooo
p3605
aVscoups
p3606
aVhiking
p3607
aVextra
p3608
aVfbc
p3609
aV0878
p3610
aVwatford
p3611
aVsufferers
p3612
aVembarrassing
p3613
aVrarely
p3614
aVmarket
p3615
aVangelo
p3616
aVprove
p3617
aVretweeted
p3618
aVlive
p3619
aVjam
p3620
aVnorapowel19
p3621
aVsetokido
p3622
aVangels
p3623
aVlivi
p3624
aVhaestarr
p3625
aVreplenishing
p3626
aVtowers
p3627
aVprinters
p3628
aVquetiapine
p3629
aVgraphic
p3630
aVslogan
p3631
aVpaypoint
p3632
aVcar
p3633
aVkrystoria
p3634
aVcat
p3635
aVlabeled
p3636
aVchalut
p3637
aVslacke565
p3638
aVcan
p3639
aVcam
p3640
aVsleeep
p3641
aVpretoria
p3642
aVfulton
p3643
aVsocial
p3644
aVheart
p3645
aVdedicated
p3646
aVgrassy
p3647
aVdecember
p3648
aVchip
p3649
aVbridesmaid
p3650
aVheard
p3651
aVfortunes
p3652
aVchin
p3653
aVspm
p3654
aVmmmmmm
p3655
aVcardio
p3656
aVproductive
p3657
aVligao
p3658
aVgiveaways
p3659
aVprexy
p3660
aVwrite
p3661
aVdespair
p3662
aVeconomy
p3663
aVhmph
p3664
aVproduct
p3665
aVwhacked
p3666
aVneat
p3667
aVbawi
p3668
aVaverted
p3669
aVdiva
p3670
aVomaygad
p3671
aVmotorway
p3672
aVpasting
p3673
aVaos
p3674
aVx15316
p3675
aVhilarioussuper
p3676
aVremember
p3677
aVnowwhen
p3678
aVwhenever
p3679
aVfrightlings
p3680
aVbenny
p3681
aVwtfff
p3682
aVawwwwww
p3683
aVautomatically
p3684
aVkurt
p3685
aVfireball
p3686
aVpunting
p3687
aVtypical
p3688
aVtagged
p3689
aVtkts
p3690
aVindeed
p3691
aVended
p3692
aVu21s
p3693
aVmanagers
p3694
aVcold
p3695
aVstill
p3696
aVextwelebs
p3697
aVbirds
p3698
aVcola
p3699
aVbirthdays
p3700
aVducktails
p3701
aVlyin
p3702
aVbroadcasts
p3703
aVqdon
p3704
aVnon
p3705
aVnoo
p3706
aVberangkaat
p3707
aVmiss__rizzy
p3708
aVwaicum_thrice
p3709
aVnoe
p3710
aV7292015
p3711
aVbaareeq
p3712
aVgamestomp
p3713
aVflint
p3714
aVhalf
p3715
aVnot
p3716
aVboomshot
p3717
aVpasswordrecall
p3718
aVnow
p3719
aVhall
p3720
aVnor
p3721
aVwont
p3722
aVjanuary
p3723
aVconcertd
p3724
aVdrop
p3725
aV900am
p3726
aVbursts
p3727
aVstockholm
p3728
aVconcerts
p3729
aVtregaron
p3730
aVkang
p3731
aVsequel
p3732
aVworriedly
p3733
aVyeah
p3734
aVreplay
p3735
aVyeap
p3736
aVyear
p3737
aVhappen
p3738
aVcalling
p3739
aVuhuh
p3740
aVpills
p3741
aVamusement
p3742
aValbum
p3743
aVshown
p3744
aVopened
p3745
aVspace
p3746
aVaftie
p3747
aVtruly
p3748
aVhastily
p3749
aVlooking
p3750
aVopener
p3751
aVreceiving
p3752
aVviable
p3753
aVshows
p3754
aVhahand
p3755
aVundead
p3756
aVhyung
p3757
aVcars
p3758
aVcart
p3759
aVargh
p3760
aVmidori
p3761
aVdependencies
p3762
aVrly
p3763
aVcaro
p3764
aVmarino
p3765
aVeugh
p3766
aVfirmansyahbl
p3767
aV615
p3768
aVcard
p3769
aVcare
p3770
aVkuroko
p3771
aVselections
p3772
aVksdahyun
p3773
aVinatall
p3774
aVhanabutle18
p3775
aVhonest
p3776
aVstyles
p3777
aV510
p3778
aVpromotion
p3779
aV515
p3780
aVlimpopo
p3781
aVinitial
p3782
aV624
p3783
aVflipping
p3784
aVyourself
p3785
aVzaz
p3786
aV15000
p3787
aVimpossible
p3788
aVmessage
p3789
aVhalla
p3790
aVtomorrow
p3791
aVzap
p3792
aVsize
p3793
aVsheep
p3794
aV3points
p3795
aVsheer
p3796
aVofficials
p3797
aVjoycecalm
p3798
aVbookmark
p3799
aVcaught
p3800
aVmwamwa
p3801
aVtraction
p3802
aVtragic
p3803
aVjuga
p3804
aVpuddle
p3805
aVfriend
p3806
aVmostly
p3807
aVthat
p3808
aVmfundo
p3809
aVcornwall
p3810
aVbrainu
p3811
aVquan
p3812
aVtams
p3813
aVpech
p3814
aVquad
p3815
aVeliminated
p3816
aVflowers
p3817
aVbaje
p3818
aVthan
p3819
aVmrjs
p3820
aVearthling
p3821
aVtransferred
p3822
aVvocals
p3823
aVfruits
p3824
aVfikri
p3825
aVfruity
p3826
aVbrowser
p3827
aVportsmouth
p3828
aVangel
p3829
aVremained
p3830
aVslap
p3831
aVovernight
p3832
aV13th
p3833
aVgrotty
p3834
aVbehey
p3835
aVanger
p3836
aVbreakfast
p3837
aVrecover
p3838
aVdresdengermany
p3839
aVform
p3840
aVkams
p3841
aVmr2
p3842
aVterrific
p3843
aVequipment
p3844
aVnalang
p3845
aVfacking
p3846
aVonline
p3847
aVroommates
p3848
aVbitching
p3849
aVbegin
p3850
aVtakeaways
p3851
aVmorrrrning
p3852
aVprice
p3853
aVapod
p3854
aVkoffie
p3855
aVamerica
p3856
aVmichelle
p3857
aVforever
p3858
aVtwould
p3859
aVegg
p3860
aVbulat
p3861
aVtalents
p3862
aVtooth
p3863
aVclearing
p3864
aVprofessional
p3865
aVtypically
p3866
aVwripped
p3867
aVtlists
p3868
aVterible
p3869
aVphotoshop
p3870
aVgerman
p3871
aVhairpin
p3872
aVdiscovered
p3873
aVlaomma
p3874
aVmaine
p3875
aVfifth
p3876
aVrealizing
p3877
aVaint
p3878
aVupgrade
p3879
aVadolf
p3880
aVtitle
p3881
aVilysm
p3882
aVgaaawd
p3883
aVonly
p3884
aVaing
p3885
aVmartes
p3886
aVdaal
p3887
aVdaam
p3888
aVjaya
p3889
aVpumpkin
p3890
aVbrienne
p3891
aVsooo
p3892
aVollys
p3893
aVaamir
p3894
aV2ne1
p3895
aVcannot
p3896
aVfavoriteotherwisei
p3897
aVbracelets
p3898
aVthapelo
p3899
aVcelebrate
p3900
aVjuicebro
p3901
aVmashaallah
p3902
aVsonal
p3903
aVaaaahh
p3904
aVriseso
p3905
aVlosers
p3906
aVhighvalue
p3907
aVviazi
p3908
aVconcert
p3909
aVburst
p3910
aVphysically
p3911
aVyhoooooo
p3912
aVunmarried
p3913
aVelected
p3914
aVasleep
p3915
aVhell
p3916
aVnetizen
p3917
aVsport
p3918
aVnowsee
p3919
aVmaana
p3920
aVsuspects
p3921
aVtaems
p3922
aVglaze
p3923
aVthurs
p3924
aVambs
p3925
aVcolours
p3926
aVnextweek
p3927
aVbetween
p3928
aVimport
p3929
aVytd
p3930
aVytb
p3931
aVmefd
p3932
aVnotice
p3933
aVprettiest
p3934
aVloftey
p3935
aVselfeeee
p3936
aVblame
p3937
aVinapropriate
p3938
aVproduxt
p3939
aVhurts
p3940
aVarticle
p3941
aVpixels
p3942
aVgwd
p3943
aVstages
p3944
aVtalented
p3945
aVwhyjust
p3946
aVmono
p3947
aVnila
p3948
aVffvi
p3949
aVgws
p3950
aVcomet
p3951
aVunnie
p3952
aVcomes
p3953
aVsnuggle
p3954
aVmadness
p3955
aVjeans
p3956
aVcranium
p3957
aVassingnment
p3958
aVlearning
p3959
aVcharismatic
p3960
aVaminn
p3961
aVcycling
p3962
aVcares
p3963
aVporsche
p3964
aVinformed
p3965
aVcassthetrainer
p3966
aVcupids
p3967
aVsirplease
p3968
aV1033
p3969
aV1030
p3970
aVtweetup
p3971
aV1645
p3972
aVwonderfulgreat
p3973
aVyeheyy
p3974
aVlanguage
p3975
aVexternal
p3976
aVbetcha
p3977
aVruby
p3978
aVpthht
p3979
aVcountless
p3980
aV103k
p3981
aVthese
p3982
aVwaale
p3983
aVtrick
p3984
aVeid
p3985
aVkumpul
p3986
aVgrepe
p3987
aVknowfor
p3988
aVbitin
p3989
aVcanceled
p3990
aVbias
p3991
aVheels
p3992
aVkenya
p3993
aVhelium
p3994
aVship
p3995
aVworry
p3996
aVpabebe
p3997
aVdevelop
p3998
aVmedia
p3999
aVtla
p4000
aVgentlemen
p4001
aVfiguring
p4002
aVfollowers
p4003
aVthankyouu
p4004
aVstreams
p4005
aVtodayyyyy
p4006
aVfinish
p4007
aVhahahaand
p4008
aVclosest
p4009
aVarctic
p4010
aVfoam
p4011
aVmesh
p4012
aVdieof
p4013
aVwtfi
p4014
aVfruit
p4015
aVtwo
p4016
aVfavorites
p4017
aVcupcake
p4018
aVmentally
p4019
aVcomplained
p4020
aVtheater
p4021
aVcharges
p4022
aVcharger
p4023
aVc64
p4024
aVdarcey
p4025
aVsevere
p4026
aVpitbull
p4027
aVvomit
p4028
aVcharged
p4029
aVtaxi
p4030
aV071
p4031
aVgenerally
p4032
aVtherere
p4033
aVmilestone
p4034
aVneon
p4035
aVvaluable
p4036
aVkaslkdja
p4037
aVshouts
p4038
aVmaternity
p4039
aVgreetings
p4040
aVtouch
p4041
aVps3
p4042
aVspeed
p4043
aVps4
p4044
aVsweatpants
p4045
aVtirade
p4046
aVdeath
p4047
aVthinking
p4048
aVimprovement
p4049
aVverse
p4050
aVwatchable
p4051
aVbaloney
p4052
aV748292
p4053
aVkareem
p4054
aVreal
p4055
aVamm
p4056
aVsmoak
p4057
aVonscreen
p4058
aVread
p4059
aVstung
p4060
aVdigital
p4061
aVgonna
p4062
aVearly
p4063
aVlistening
p4064
aVusing
p4065
aVpsp
p4066
aVexecution
p4067
aVlady
p4068
aVrear
p4069
aVbarbells
p4070
aVsuppliers
p4071
aVselektion
p4072
aVgreeting
p4073
aVmiracle
p4074
aVphysiotherapy
p4075
aVblackberry
p4076
aVzokay
p4077
aVtooooooo
p4078
aVbellamy
p4079
aVgwinett
p4080
aVverbal
p4081
aVdonnaestrydomwesterncapegovza
p4082
aVashraf
p4083
aVwayanadan
p4084
aVbless
p4085
aVmotherfucker
p4086
aVperverse
p4087
aVunlocked
p4088
aVrecorded
p4089
aVyako
p4090
aVgarret
p4091
aVnuggets
p4092
aVkeedz
p4093
aVmasses
p4094
aVbusiness
p4095
aVasap
p4096
aVtdc
p4097
aVcredits
p4098
aVtdy
p4099
aV1930
p4100
aVhabe
p4101
aVexciting
p4102
aVthrow
p4103
aVbrighton
p4104
aVcomparison
p4105
aVcreaking
p4106
aVchoo
p4107
aVjourney
p4108
aVwolf
p4109
aVgreatly
p4110
aVitty
p4111
aVinvested
p4112
aVsry
p4113
aVminecon
p4114
aVcryingi
p4115
aVbitty
p4116
aVresearching
p4117
aVvball
p4118
aV2nite
p4119
aVyoud
p4120
aVsnapchat
p4121
aVrtfav
p4122
aVheated
p4123
aVwatchdog
p4124
aVltsw
p4125
aVyous
p4126
aVyour
p4127
aV00128835
p4128
aVatrack
p4129
aVpizzas
p4130
aVlog
p4131
aVprepare
p4132
aVarea
p4133
aVsprees
p4134
aVremoving
p4135
aVlol
p4136
aVlor
p4137
aVstart
p4138
aVstealth
p4139
aVcats
p4140
aVlow
p4141
aVlot
p4142
aVcolder
p4143
aVhellish
p4144
aVallergic
p4145
aVjones
p4146
aVdelayed
p4147
aVaww
p4148
aVbeautifulsweettalentedamazing
p4149
aVtrying
p4150
aVfraud
p4151
aVapmas14
p4152
aVbesst
p4153
aVcomics
p4154
aVlouisiana
p4155
aVspamming
p4156
aVjailbroken
p4157
aVpostive
p4158
aVsadness
p4159
aVfreakin
p4160
aVdefine
p4161
aV601
p4162
aV600
p4163
aVunmarriedchecks
p4164
aVdescribe
p4165
aVmoved
p4166
aVsales
p4167
aVquantum
p4168
aV3wks
p4169
aVmutuals
p4170
aVardent
p4171
aVmoves
p4172
aVnerd
p4173
aVyok
p4174
aVkonami
p4175
aVanarchy
p4176
aVhousework
p4177
aVmagisa
p4178
aVyou
p4179
aVpoor
p4180
aVsuites
p4181
aVpoop
p4182
aVtripathi
p4183
aVdiaries
p4184
aVphoebes
p4185
aVkharap
p4186
aVcheatmate
p4187
aVpreforming
p4188
aVpush
p4189
aVpeak
p4190
aVpooo
p4191
aVpool
p4192
aVrealising
p4193
aVbuilding
p4194
aVbakino_
p4195
aVzenmate
p4196
aVcnblue
p4197
aVvines
p4198
aVrepay
p4199
aVarianna
p4200
aVembracing
p4201
aVjoins
p4202
aVtomorrows
p4203
aVpointing
p4204
aVsurprisedyou
p4205
aVbull
p4206
aVmonth
p4207
aVunblock
p4208
aVdeadline
p4209
aVmp3
p4210
aVmessy
p4211
aVrevealed
p4212
aVcallies
p4213
aVcarpet
p4214
aVausterlitz
p4215
aVicons
p4216
aVgrandad
p4217
aVdanielle
p4218
aVkrispy
p4219
aVrazzist1
p4220
aVhill
p4221
aVhibbs
p4222
aV1pm
p4223
aVvery
p4224
aVhorror
p4225
aVcoloured
p4226
aVselfies
p4227
aVtheyve
p4228
aVminded
p4229
aVdecide
p4230
aVreservationssandsbeacheu
p4231
aVantagonised
p4232
aVheaven
p4233
aVdulwich
p4234
aVlouis
p4235
aVemcon
p4236
aVrandom
p4237
aVcircuit
p4238
aVstartim
p4239
aVmeydan
p4240
aVanal
p4241
aVsmith
p4242
aVrealisticly
p4243
aVcookies
p4244
aVraheel
p4245
aVinstagram
p4246
aVgayle
p4247
aVteas
p4248
aV6264308715
p4249
aVchuckle
p4250
aVwitnessed
p4251
aVscorching
p4252
aVmaslan
p4253
aVemotions
p4254
aVsadkaay
p4255
aVmomentnot
p4256
aVlearned
p4257
aVbestfriendsfriends
p4258
aVedited
p4259
aVloose
p4260
aV21st
p4261
aVanswers
p4262
aVtracks
p4263
aVanticipation
p4264
aVver
p4265
aVstrong
p4266
aVahead
p4267
aVvegetarian
p4268
aVcreepy
p4269
aVamount
p4270
aVarent
p4271
aVheartbroken
p4272
aVaudraesar
p4273
aVshuffle
p4274
aVfamily
p4275
aVnooooooooo
p4276
aVhogo
p4277
aVtracking
p4278
aVput
p4279
aVlagos
p4280
aVanalyzing
p4281
aVaimed
p4282
aVmuslim
p4283
aVunpleasantness
p4284
aVcarva
p4285
aVmuaahhh
p4286
aVkhan
p4287
aVtakes
p4288
aVinjure
p4289
aVlansi
p4290
aVdeepxcape
p4291
aValmost
p4292
aVdeadthank
p4293
aVtaken
p4294
aVmorisettes
p4295
aVinjury
p4296
aVmagpaalam
p4297
aVnegooo
p4298
aVthrown
p4299
aVremixes
p4300
aVincentive
p4301
aVlusi
p4302
aVinstrumental
p4303
aVexcuse
p4304
aVaaahhh
p4305
aVbroke
p4306
aVmounted
p4307
aVchurch
p4308
aVgrill
p4309
aVoffender
p4310
aVfe14
p4311
aVhsould
p4312
aVswasa
p4313
aVning
p4314
aVninh
p4315
aValyssa
p4316
aVhistory
p4317
aV740
p4318
aVfundamentalist
p4319
aVbffs
p4320
aVpushes
p4321
aVpusher
p4322
aVluxord
p4323
aVclaimed
p4324
aVcarefulnamechecking
p4325
aVspecies
p4326
aV530am
p4327
aVtakoyaki
p4328
aVharrys
p4329
aVprepaid
p4330
aV1059
p4331
aVclarke
p4332
aVledger
p4333
aVstayed
p4334
aVmcds
p4335
aVunlucky
p4336
aVmcdo
p4337
aV25ish
p4338
aVreject
p4339
aVidaho
p4340
aVrapists
p4341
aVtried
p4342
aVrude
p4343
aVsneak
p4344
aVtries
p4345
aVshadowplaylouis
p4346
aVsyria
p4347
aVfuuuuuuuuuck
p4348
aVbugs
p4349
aVanytime
p4350
aVslacking
p4351
aVego
p4352
aVscaring
p4353
aVcrafts
p4354
aVbreads
p4355
aVdream
p4356
aVlrt
p4357
aVchicks
p4358
aVmaterialistic
p4359
aVhelp
p4360
aVbasename
p4361
aVffs
p4362
aVsoon
p4363
aVbcuz
p4364
aVlovebirds
p4365
aVthermal
p4366
aVhhahhaaa
p4367
aVcommitted
p4368
aVbcus
p4369
aVoldschool
p4370
aVuve
p4371
aVlateral
p4372
aVlabours
p4373
aVactually
p4374
aVpeanuts
p4375
aVcutie
p4376
aVgoodmorning
p4377
aVfool
p4378
aVevening
p4379
aVmotivated
p4380
aVoverperhatian
p4381
aVfood
p4382
aVfoof
p4383
aVcooks
p4384
aVfloating
p4385
aVamyjackson21
p4386
aVsiannn
p4387
aVmoaning
p4388
aVstarbucks
p4389
aVfoot
p4390
aVtowering
p4391
aVswapping
p4392
aVkrta
p4393
aVfully
p4394
aVdudaftie
p4395
aVsameee
p4396
aVstopped
p4397
aVuppar
p4398
aVifc
p4399
aVheavy
p4400
aVinjured
p4401
aVtaft
p4402
aVneil
p4403
aVpamper
p4404
aVnein
p4405
aVwacky
p4406
aVaccidentally
p4407
aVmcflurry
p4408
aVcraaaazzyy
p4409
aVhediye
p4410
aVbeyond
p4411
aVevent
p4412
aVlaomma_couture
p4413
aVvertigo
p4414
aVjamuna
p4415
aVbali
p4416
aVmiss
p4417
aVrobert
p4418
aVsince
p4419
aVabhi
p4420
aVramzan
p4421
aVdesireameen
p4422
aVwolverine
p4423
aVtologooo
p4424
aVsamantha
p4425
aVissue
p4426
aVass
p4427
aVpun
p4428
aVselos
p4429
aVbass
p4430
aVdirt
p4431
aVpud
p4432
aVpub
p4433
aVlabs
p4434
aVreason
p4435
aVbase
p4436
aVasf
p4437
aVdire
p4438
aVask
p4439
aVrecs
p4440
aVearliest
p4441
aVpup
p4442
aVdunt
p4443
aVthoughtseized
p4444
aVlaunch
p4445
aVterrible
p4446
aVentlead590
p4447
aVoppa
p4448
aVcheering
p4449
aVamerican
p4450
aVexpecting
p4451
aVdaisy
p4452
aVscheduled
p4453
aVheartbeat
p4454
aVarsenal
p4455
aVfucked
p4456
aVtalked
p4457
aVfriendseverything
p4458
aVkapan
p4459
aVmist
p4460
aVloooooove
p4461
aVmaple
p4462
aVhorse
p4463
aVtwoofs
p4464
aV______
p4465
aVannouncements
p4466
aVstation
p4467
aVbunta
p4468
aVicloud
p4469
aVnigeria
p4470
aVhundred
p4471
aVbanana
p4472
aVselling
p4473
aVhotaisndonwyvauwjoqhsjsnaihsuswtf
p4474
aVmambully
p4475
aVbowel
p4476
aVjamie
p4477
aVboredom
p4478
aVrisks
p4479
aVtranslation
p4480
aVflattery
p4481
aVsunnah
p4482
aVumaga
p4483
aVgrew
p4484
aVbaconbutter
p4485
aVkindly
p4486
aVcollaboration
p4487
aVsth
p4488
aVgrey
p4489
aVshoushitsu
p4490
aVorhan
p4491
aVgreg
p4492
aVmingming
p4493
aVrecovered
p4494
aVkindle
p4495
aVheadache
p4496
aVbackkk
p4497
aVshirts
p4498
aVcharlotte
p4499
aVovercast
p4500
aVjuudiciary
p4501
aVwasnt
p4502
aVurgently
p4503
aVghantay
p4504
aVstil
p4505
aVyeey
p4506
aVjuice
p4507
aVwimbledonreally
p4508
aVsheet
p4509
aVantonio
p4510
aVphilly
p4511
aVlie
p4512
aVlib
p4513
aVlil
p4514
aVtrance
p4515
aVempowered
p4516
aVscotland
p4517
aVlit
p4518
aVswallowing
p4519
aVliv
p4520
aVlabour
p4521
aVlip
p4522
aVuseless
p4523
aVaired
p4524
aVtowards
p4525
aVkak
p4526
aVkyungsoos
p4527
aVrhs
p4528
aVblinkin
p4529
aVkal
p4530
aVkar
p4531
aVexperiences
p4532
aVkat
p4533
aVrhd
p4534
aVminho
p4535
aVsturdy
p4536
aVmobile
p4537
aVhakhakhak
p4538
aVclear
p4539
aVpopularity
p4540
aVclean
p4541
aVrechargeable
p4542
aVphysics
p4543
aVshoutout
p4544
aVsurrey
p4545
aVstalked
p4546
aVbo3
p4547
aVcommas
p4548
aVrunescape
p4549
aVoppayaa
p4550
aVstalker
p4551
aVcoaster
p4552
aValbums
p4553
aVbananas
p4554
aVcompletion
p4555
aVncc
p4556
aVnorthern
p4557
aVjustice
p4558
aVpamer
p4559
aVhope
p4560
aV2emt
p4561
aVabligaverins7
p4562
aVtompolo
p4563
aVpodiatrists
p4564
aVuncut
p4565
aVpretty
p4566
aVrands
p4567
aVcircle
p4568
aVclonmel
p4569
aVveritys
p4570
aVlovelayyy
p4571
aVlegible
p4572
aVweltum
p4573
aValbeit
p4574
aVsonically
p4575
aVgrocery
p4576
aVtrees
p4577
aVfamous
p4578
aVfeels
p4579
aVpretending
p4580
aVduring
p4581
aVworkouts
p4582
aVmuntu
p4583
aVtmobile
p4584
aVboost
p4585
aVunnieeee
p4586
aVtossing
p4587
aVperfume
p4588
aVtheactualking
p4589
aVkino
p4590
aVswitzerland
p4591
aVhandshome
p4592
aVpatriotism
p4593
aVproillamasquacom
p4594
aVbacktrack
p4595
aVprague
p4596
aVcrackle
p4597
aVculture
p4598
aVinhouse
p4599
aVportrait
p4600
aVangie
p4601
aVdeploying
p4602
aVglue
p4603
aVpish
p4604
aVxcylin
p4605
aVwkend
p4606
aVwot
p4607
aVwow
p4608
aVwon
p4609
aVchandauli
p4610
aVunluckiest
p4611
aVwoe
p4612
aVprobably
p4613
aVrlly
p4614
aVconditions
p4615
aVpiss
p4616
aVthaaanks
p4617
aVrobinhood
p4618
aVbettor
p4619
aVmissing
p4620
aVspray
p4621
aVranked
p4622
aVfingertheres
p4623
aVgenre
p4624
aVzipper
p4625
aVbride
p4626
aVleague
p4627
aVpatwari
p4628
aVmega
p4629
aVhavuuuuuloveyouuuuuuuuu
p4630
aVadored
p4631
aVanon
p4632
aVforgotten
p4633
aVvault
p4634
aVrisky
p4635
aVliked
p4636
aVlikee
p4637
aVbattery
p4638
aVhasya
p4639
aVwhatever
p4640
aVheader
p4641
aViloveyouu
p4642
aVbadminton
p4643
aVspotting
p4644
aVlikes
p4645
aVlinux
p4646
aVvessel
p4647
aVlangs
p4648
aVcornish
p4649
aVgals
p4650
aVlahat
p4651
aVdamn
p4652
aVtomlinson
p4653
aVwew
p4654
aVbugatti
p4655
aVorganise
p4656
aVhimmat
p4657
aVhbm
p4658
aVkangin
p4659
aVlived
p4660
aVpartly
p4661
aV0001
p4662
aVelsa
p4663
aVimac
p4664
aVelse
p4665
aVlives
p4666
aVmombasa
p4667
aVkingfutureboss
p4668
aVrandomly
p4669
aVairforce
p4670
aVdusty
p4671
aVbikini
p4672
aVbeshak
p4673
aVought
p4674
aVhbd
p4675
aVanimated
p4676
aVthur30july
p4677
aVguide
p4678
aVloop
p4679
aVpack
p4680
aVmahirap
p4681
aV10000
p4682
aVyaaaaayyyyyy
p4683
aVyouguysall
p4684
aVskype
p4685
aVready
p4686
aVjps
p4687
aVnvr
p4688
aVgrans
p4689
aVcommunal
p4690
aVanymore
p4691
aVwailay
p4692
aVsubliminal
p4693
aVshaa
p4694
aVgrand
p4695
aVhocking
p4696
aVshan
p4697
aVconflict
p4698
aVbom
p4699
aVused
p4700
aVelgato
p4701
aVdime
p4702
aVbonus
p4703
aVoverweight
p4704
aVstashed
p4705
aVuses
p4706
aVuser
p4707
aVgt_lt
p4708
aV009
p4709
aVusey
p4710
aVinital
p4711
aVolder
p4712
aVpoland
p4713
aVobviously
p4714
aVheadlining
p4715
aVchronicles
p4716
aVconsistency
p4717
aVclears
p4718
aVwedges
p4719
aVeonni
p4720
aVexploits
p4721
aVaaaaages
p4722
aVbelgium
p4723
aViero
p4724
aVcocky
p4725
aViqbal
p4726
aVroasted
p4727
aVstartups
p4728
aVpraying
p4729
aVprocrastinating
p4730
aVpassword
p4731
aVmotorsport
p4732
aVnikki
p4733
aVwayward
p4734
aVexercising
p4735
aVbarkin
p4736
aVfinland
p4737
aVdesc
p4738
aV76x
p4739
aVmarco
p4740
aVmarch
p4741
aVthurston
p4742
aVshowing
p4743
aVtiring
p4744
aVjiba
p4745
aVgame
p4746
aVdearly
p4747
aVdamage
p4748
aVwings
p4749
aVsubmission
p4750
aVpillar
p4751
aVpipped
p4752
aVprovoking
p4753
aVdonna
p4754
aVeek
p4755
aVsofa
p4756
aVpopular
p4757
aVmotavators
p4758
aVdonot
p4759
aVfnaf
p4760
aVlepas
p4761
aVsomi
p4762
aVparade
p4763
aVwahahaah
p4764
aVdrove
p4765
aVkiavauk
p4766
aVyolo
p4767
aVsome
p4768
aVlips
p4769
aVexperienced
p4770
aVmmmmm
p4771
aVjongdae
p4772
aV28th
p4773
aVtrendy
p4774
aVsoms
p4775
aVsavage
p4776
aVslathered
p4777
aVmuchmore
p4778
aVfalsettos
p4779
aVhuha
p4780
aVcentral
p4781
aVslash
p4782
aVquote
p4783
aVteret
p4784
aVcgi
p4785
aVsweating
p4786
aVspeculationand
p4787
aVrun
p4788
aVlongmorn
p4789
aVpinya
p4790
aVrub
p4791
aVhypocritical
p4792
aVnelle
p4793
aVstem
p4794
aVosea
p4795
aVstep
p4796
aVachi
p4797
aVlasts
p4798
aVache
p4799
aVpremiun
p4800
aVraspberry
p4801
aVworldnelson
p4802
aVabroad
p4803
aVwealth
p4804
aVfaith
p4805
aVandromeda
p4806
aVwouldnt
p4807
aVtracing
p4808
aVidr
p4809
aVids
p4810
aVawwww
p4811
aVsake
p4812
aVsnippets
p4813
aVpains
p4814
aVh_eartshapedbox
p4815
aVashwathy
p4816
aVmessaging
p4817
aVshiny
p4818
aVidc
p4819
aVblock
p4820
aVseeing
p4821
aVdude
p4822
aVwithin
p4823
aVkaussies
p4824
aVcarlton
p4825
aVslovak
p4826
aVsakit
p4827
aVmonfils
p4828
aValison
p4829
aVdaaay
p4830
aVplots
p4831
aVvisas
p4832
aVheritage
p4833
aVhimself
p4834
aVdewsbury
p4835
aVlarry
p4836
aVfishy
p4837
aVrussian
p4838
aVmnwreeen
p4839
aVdull
p4840
aVinfo
p4841
aVutc
p4842
aVyoghurt
p4843
aVutd
p4844
aVrestarted
p4845
aVminha
p4846
aVyeke
p4847
aVmalik
p4848
aVbrolost
p4849
aVloving
p4850
aVchelsea
p4851
aVnoone
p4852
aVuber
p4853
aVordered
p4854
aVadults
p4855
aVfckin
p4856
aVlisaherring19
p4857
aVbrambhatt
p4858
aVdoesn
p4859
aVzayniscomingbackonjuly26
p4860
aVhaiz
p4861
aVdiseaseback
p4862
aV1899
p4863
aVrupert
p4864
aVhaix
p4865
aVkidney
p4866
aVcotton
p4867
aVvarge
p4868
aVnaa
p4869
aVnad
p4870
aVnae
p4871
aVmacykatemusic
p4872
aVnah
p4873
aVnai
p4874
aVnetfilx
p4875
aVapplication
p4876
aVpoliticians
p4877
aVnaw
p4878
aVnat
p4879
aVdepartment
p4880
aVsmiles
p4881
aVdraw
p4882
aVvisits
p4883
aVwilliam
p4884
aVkansai
p4885
aVolaplex
p4886
aVforneret
p4887
aVevan
p4888
aVsmiled
p4889
aVcongrads
p4890
aVreservation
p4891
aVstructure
p4892
aVobyun
p4893
aVnotch
p4894
aVblend
p4895
aVrequired
p4896
aVyoutube
p4897
aVheath
p4898
aVbandung
p4899
aVtandem
p4900
aVstargate
p4901
aVbleaches
p4902
aVunderrated
p4903
aVsvu
p4904
aVdvr
p4905
aVkaty
p4906
aVilymelanie
p4907
aVcoldcough
p4908
aVsibuk
p4909
aVgrunt
p4910
aVkats
p4911
aVnuns
p4912
aVkath
p4913
aVdesserts
p4914
aVkreizi_
p4915
aVinfographic
p4916
aVsumedh
p4917
aVizzy
p4918
aVpsycho
p4919
aVtweeted
p4920
aVkate
p4921
aVifwhen
p4922
aVmosque
p4923
aVangrynow
p4924
aVsuits
p4925
aVoclock
p4926
aVdoes
p4927
aVexcluded
p4928
aVsuite
p4929
aVfriendly
p4930
aVsilverstone
p4931
aVjuliana
p4932
aVpersuade
p4933
aVnichola
p4934
aVkitty
p4935
aVgenius
p4936
aVmaas
p4937
aVwave
p4938
aVfelicity
p4939
aVfacebook
p4940
aVtelling
p4941
aVyourselves
p4942
aVmaaf
p4943
aVkindled
p4944
aVnausea
p4945
aVminju
p4946
aVstiff
p4947
aVgender
p4948
aVbutton
p4949
aVbeautifullycrafted
p4950
aVmichael
p4951
aVryan
p4952
aVassignments
p4953
aVhajur
p4954
aVvictoriaamberlunaand
p4955
aVbooty
p4956
aVcarter
p4957
aVkhalifa
p4958
aVteasers
p4959
aVboots
p4960
aVwaking
p4961
aVjump
p4962
aVpicked
p4963
aVdownload
p4964
aV200sub
p4965
aVclick
p4966
aVfriooooo
p4967
aVsausage
p4968
aVcupcakes
p4969
aVplays
p4970
aVwallet
p4971
aVvampire
p4972
aVcell
p4973
aVexperiment
p4974
aVsorka
p4975
aVwonho
p4976
aVcollins
p4977
aVnicholas
p4978
aVimitatia
p4979
aVupsetting
p4980
aVfaceit
p4981
aVluckely
p4982
aVcebu
p4983
aVzopiclone
p4984
aVcanals
p4985
aV0717am
p4986
aVbloopers
p4987
aVpresale
p4988
aVzumba
p4989
aVchant
p4990
aV640
p4991
aVexpire
p4992
aVproducts
p4993
aVgeng
p4994
aVchum
p4995
aVyoutuber
p4996
aVwig
p4997
aVwid
p4998
aVclark
p4999
aVclaim
p5000
aVwin
p5001
aVjuries
p5002
aVwil
p5003
aVclara
p5004
aVwii
p5005
aVwiw
p5006
aVwiv
p5007
aV0734am
p5008
aVwit
p5009
aVwip
p5010
aVtruckloads
p5011
aVmemorization
p5012
aVsinging
p5013
aVwiz
p5014
aVdosent
p5015
aVcrap
p5016
aVjonathas
p5017
aVdoujin
p5018
aVblockchain
p5019
aVcray
p5020
aVcamera
p5021
aVcoldplay
p5022
aVcheeky
p5023
aVsubsidized
p5024
aVcram
p5025
aVcran
p5026
aVstage
p5027
aVcheeks
p5028
aVpopped
p5029
aVamassiveoverdoseofships
p5030
aVdisappointedmmsrry
p5031
aVinconsiderate
p5032
aVstarted
p5033
aVfeminists
p5034
aVabout
p5035
aVuuughhhh
p5036
aVfuck
p5037
aV1tb
p5038
aVjollies
p5039
aVfennell
p5040
aVhuxley
p5041
aVstarter
p5042
aVsocket
p5043
aVcrosssed
p5044
aVrotterdam
p5045
aVsalad
p5046
aVferdous
p5047
aVride
p5048
aVwearig
p5049
aVdonut
p5050
aVcrossed
p5051
aVyapsters
p5052
aVmeet
p5053
aVdrops
p5054
aValbanian
p5055
aVcontrol
p5056
aVbeijing
p5057
aVwaifu
p5058
aVlinks
p5059
aVniwll
p5060
aVamiibo
p5061
aVpengen
p5062
aVblaine
p5063
aVmealtimes
p5064
aVwonderful
p5065
aVinsyaallah
p5066
aVskirt
p5067
aVwaaaaa
p5068
aVkian
p5069
aVstole
p5070
aVlesley
p5071
aValhamdulillah
p5072
aVlurgy
p5073
aVbandana
p5074
aVmonash
p5075
aVlooww
p5076
aVfarm
p5077
aVpeeling
p5078
aVrays
p5079
aVfroze
p5080
aVdipoppo
p5081
aVrecords
p5082
aVspelling
p5083
aVrepackage
p5084
aVsigeg
p5085
aVwhistle
p5086
aVdormmates
p5087
aVshropshire
p5088
aVibiza
p5089
aVfavourites
p5090
aVsoftware
p5091
aVavalible
p5092
aVforritwah
p5093
aVsoggy
p5094
aVleavework
p5095
aVsonaaaaaaa
p5096
aVincluding
p5097
aVcruise
p5098
aVmentioned
p5099
aVwhyyyyyyyyyyyy
p5100
aVwhatisyourfashionality
p5101
aVindiankulture
p5102
aVtemporal
p5103
aVzehr
p5104
aVemails
p5105
aVx27
p5106
aVhunde6
p5107
aVtechnologys
p5108
aVloveyaaaah
p5109
aVfritillary
p5110
aVsword
p5111
aVmissyou
p5112
aVmbulelo
p5113
aVadulthood
p5114
aVpoooootek
p5115
aVmatchy
p5116
aVhands
p5117
aVfront
p5118
aVsweety
p5119
aVrefuel
p5120
aVmubarik
p5121
aVgrumbling
p5122
aVgastronomy
p5123
aVuniversity
p5124
aVfoiling
p5125
aVpotagermy
p5126
aVrewatched
p5127
aVadvisory
p5128
aVmodi
p5129
aVshaking
p5130
aVmedicines
p5131
aVthishope
p5132
aVupward
p5133
aVseniors
p5134
aVunwind
p5135
aVankles
p5136
aVinputs
p5137
aVglobe
p5138
aV700
p5139
aVbuttsex
p5140
aVmulticolored
p5141
aVdesigner
p5142
aVmeasure
p5143
aVwalao
p5144
aVspecial
p5145
aVkhloes
p5146
aVbraxton
p5147
aVarmor
p5148
aVislamist
p5149
aVstrokes
p5150
aVcause
p5151
aVsadomasochists
p5152
aVrecommendations
p5153
aVjampk
p5154
aVstrap
p5155
aVcompletely
p5156
aVgaon
p5157
aVkeesh
p5158
aValchemists
p5159
aVitong
p5160
aVprincess
p5161
aVhangcopying
p5162
aVthencerest547
p5163
aVnadalaw
p5164
aVroute
p5165
aVtimes
p5166
aVkeeo
p5167
aVkeen
p5168
aVhumphrey
p5169
aVaustin
p5170
aVamazinglt3
p5171
aVdesigned
p5172
aVcalibraska
p5173
aVwaduhpantes
p5174
aVamtired
p5175
aVpowerful
p5176
aVdate
p5177
aVbitch
p5178
aVhddcs
p5179
aVquality
p5180
aVlahhh
p5181
aVblogged
p5182
aVplaylist
p5183
aVmanagement
p5184
aVaigoo
p5185
aVprivacy
p5186
aVdudeeeeeee
p5187
aVachieved
p5188
aVhelppp
p5189
aVattack
p5190
aVnoooooo
p5191
aVankle
p5192
aVperfectly
p5193
aVfinal
p5194
aVannnd
p5195
aVbeard
p5196
aVash
p5197
aVexactly
p5198
aVlists
p5199
aVcya
p5200
aVjds
p5201
aVhahays
p5202
aVhomebased
p5203
aVfuzzy
p5204
aVoverwhelming
p5205
aVherself
p5206
aVapologist
p5207
aVupdating
p5208
aVbeh
p5209
aVben
p5210
aVbeb
p5211
aVbea
p5212
aVbeg
p5213
aVbed
p5214
aVbee
p5215
aV6th
p5216
aVbuggers
p5217
aV9755804444
p5218
aVbet
p5219
aVsiddique
p5220
aVsuay
p5221
aV0724pm
p5222
aVclose
p5223
aVneed
p5224
aVborder
p5225
aVcheerios
p5226
aVathenas
p5227
aVscrew
p5228
aVbastard
p5229
aVunexpect
p5230
aVphysique
p5231
aVmakeover
p5232
aVrelatives
p5233
aVchokkie
p5234
aVunagi
p5235
aVjummah
p5236
aVlectures
p5237
aVmileage
p5238
aVzaine
p5239
aVtshirts
p5240
aVthts
p5241
aVmountaintitled
p5242
aVmontana
p5243
aVconnected
p5244
aVsoobin
p5245
aVawh
p5246
aVdosto
p5247
aVawe
p5248
aVyesthe
p5249
aVure
p5250
aVstereo
p5251
aVurl
p5252
aVupset
p5253
aVhais
p5254
aVthanksyou
p5255
aVconstruction
p5256
aVtalk
p5257
aVurs
p5258
aVrodics
p5259
aVbun
p5260
aVindo
p5261
aVwheredoistart
p5262
aVimpression
p5263
aVanyway
p5264
aVslapped
p5265
aVyael
p5266
aVcareful
p5267
aVenvy
p5268
aVbased
p5269
aVnga
p5270
aVsheriff
p5271
aVwinner
p5272
aVhopeful
p5273
aVngi
p5274
aVrash
p5275
aVemployer
p5276
aVayex
p5277
aValreaddyyy
p5278
aVbantime
p5279
aVmga
p5280
aVgamecity
p5281
aVsoonthanks
p5282
aVystrday
p5283
aVoverall
p5284
aV120
p5285
aVtbh
p5286
aVfallout
p5287
aVwerent
p5288
aVpicwhat
p5289
aVtbc
p5290
aVkong
p5291
aVscrolling
p5292
aVsatyajit
p5293
aVyaaaaaaaay
p5294
aVgray
p5295
aVevolution
p5296
aVcourse
p5297
aVshy
p5298
aVughh
p5299
aVughi
p5300
aVtuned
p5301
aVprocessed
p5302
aVgran
p5303
aVwish
p5304
aVgrab
p5305
aVdunedin
p5306
aVsho
p5307
aVspotted
p5308
aVsoln
p5309
aVyeyy
p5310
aVprayers
p5311
aVeris
p5312
aVcuts
p5313
aVhumans
p5314
aVimmigrant
p5315
aVyosh
p5316
aVkorea
p5317
aVpowder
p5318
aVdesperate
p5319
aVkanye
p5320
aVbahayan
p5321
aVcreating
p5322
aVcorpses
p5323
aVrqst
p5324
aVstats
p5325
aVluv
p5326
aVjoys
p5327
aVnightmare
p5328
aVhorribly
p5329
aVtend
p5330
aVuuu
p5331
aVstate
p5332
aVsupernatural
p5333
aVlue
p5334
aVtyre
p5335
aVhorrible
p5336
aVjuggle
p5337
aVflickr
p5338
aVkidneys
p5339
aVtent
p5340
aVtore
p5341
aVkei
p5342
aVmags
p5343
aVmerry
p5344
aVkev
p5345
aVprecious
p5346
aVgrepein
p5347
aVdistribution
p5348
aVmonitor
p5349
aVhits
p5350
aVaqui
p5351
aVlimits
p5352
aVadmin
p5353
aVminds
p5354
aVmanifestations
p5355
aVami
p5356
aVstorify
p5357
aVjersey
p5358
aVchristen
p5359
aVtorn
p5360
aVwagga
p5361
aVtuesday
p5362
aVdenise
p5363
aVinvisible
p5364
aVgameswish
p5365
aVbaon
p5366
aVshems
p5367
aVorig
p5368
aVwilly
p5369
aVquit
p5370
aVemesh
p5371
aVyay
p5372
aVaddition
p5373
aVdiscrimination
p5374
aVchwang
p5375
aVsara
p5376
aVthanked
p5377
aVyas
p5378
aVyar
p5379
aVyan
p5380
aVslowly
p5381
aVyah
p5382
aVshirleycam
p5383
aVyaa
p5384
aVisolating
p5385
aVoth
p5386
aVotl
p5387
aVboth
p5388
aVreleasing
p5389
aVpolicy
p5390
aVmail
p5391
aVotp
p5392
aVapartement
p5393
aVotw
p5394
aVannyeong
p5395
aVxoxoxo
p5396
aVharder
p5397
aVsalman
p5398
aVsecrets
p5399
aVowns
p5400
aVwooohooo
p5401
aVini
p5402
aVxpress
p5403
aVdemn
p5404
aVdemo
p5405
aVomegleyou
p5406
aVhearted
p5407
aVjeslyn
p5408
aVobituary
p5409
aVguitarsoul
p5410
aVballoon
p5411
aVchants
p5412
aVparts
p5413
aVspeaker
p5414
aVmagictrikband
p5415
aVblight
p5416
aVparty
p5417
aV413am
p5418
aVthelock76
p5419
aVflesh
p5420
aVappearances
p5421
aVbuzz
p5422
aVeffect
p5423
aVjaysus
p5424
aVnightly
p5425
aVmoviewill
p5426
aVhuhuhu
p5427
aVfrequently
p5428
aVspree
p5429
aVimpeccable
p5430
aVsteals
p5431
aVmeck
p5432
aVhokies
p5433
aVhushed
p5434
aVobstacles
p5435
aVwell
p5436
aVkanina
p5437
aVmauliate
p5438
aVvet
p5439
aVdrone
p5440
aVmixers
p5441
aVawning
p5442
aVscho
p5443
aVjawad
p5444
aVchicsirific
p5445
aVlinis
p5446
aVrestore
p5447
aVmuchhh
p5448
aVaccurate
p5449
aVdosa
p5450
aVdose
p5451
aVmistakes
p5452
aVdistant
p5453
aVskill
p5454
aVdost
p5455
aVkutiyapanti
p5456
aVgensan
p5457
aVsurreal
p5458
aVlogged
p5459
aVbarefooted
p5460
aVbullshit
p5461
aVohioans
p5462
aVnath
p5463
aVvids
p5464
aVdipsatch
p5465
aVquarter
p5466
aVnate
p5467
aVdetails
p5468
aVsonic
p5469
aVlivid
p5470
aVrockfishing
p5471
aVsokay
p5472
aV5am
p5473
aVbottoms
p5474
aVimmediately
p5475
aV268
p5476
aVloss
p5477
aVsissi
p5478
aVnecessary
p5479
aVsweetan
p5480
aVxst
p5481
aValternatively
p5482
aVcandy
p5483
aVpopol
p5484
aVetdi
p5485
aVlose
p5486
aVliker
p5487
aVpage
p5488
aVtherein
p5489
aVshed
p5490
aVtwitter
p5491
aVshem
p5492
aVesp
p5493
aVlibrary
p5494
aVhush
p5495
aVshet
p5496
aVfrancisco
p5497
aVshes
p5498
aVhome
p5499
aVjlo
p5500
aVpeter
p5501
aVheartache
p5502
aVawwwwwwww
p5503
aVshiiiit
p5504
aVcrypts
p5505
aVgrinding
p5506
aVvianey
p5507
aVwendy
p5508
aVaapke
p5509
aVkawaii
p5510
aVusah
p5511
aVcoated
p5512
aVinaccurate
p5513
aVindicated
p5514
aVbreakups
p5515
aVeverette
p5516
aVchoker
p5517
aVchokes
p5518
aVnaps
p5519
aVmubbarak
p5520
aVinfrared
p5521
aVfreedom
p5522
aVsinister
p5523
aVrecognized
p5524
aVizzat
p5525
aVempty
p5526
aVjlovers
p5527
aVpuppies
p5528
aVtongue
p5529
aVequally
p5530
aVglenn
p5531
aVartists
p5532
aVcouldnt
p5533
aVwhos
p5534
aVmehendi
p5535
aVselenators
p5536
aVelephants
p5537
aVsomersetlooking
p5538
aVnoticed
p5539
aVinner
p5540
aVinspiration
p5541
aVrecruited
p5542
aVstydia
p5543
aVcricket
p5544
aVnorth
p5545
aVgluten
p5546
aVagrees
p5547
aVokthe
p5548
aVblaming
p5549
aVdartmoor
p5550
aVdownyou
p5551
aVgoals
p5552
aVgail
p5553
aVear
p5554
aVeat
p5555
aVmargo
p5556
aVinshaaallah
p5557
aVhosting
p5558
aVsigned
p5559
aVcruel
p5560
aVdms
p5561
aVlimit
p5562
aVdelights
p5563
aVpumped
p5564
aVpiece
p5565
aVdisplay
p5566
aVmechanics
p5567
aVthnks
p5568
aVmegamoh
p5569
aVuniversal
p5570
aVtissues
p5571
aVkisses
p5572
aVdialogue
p5573
aVbeato
p5574
aVlasted
p5575
aVtwist
p5576
aVdonetsk
p5577
aVbeats
p5578
aVeducation
p5579
aVeric
p5580
aVdiego
p5581
aVarre
p5582
aVcontest
p5583
aVfriendzone
p5584
aVoffensive
p5585
aVsholong
p5586
aVonwards
p5587
aVnuuh
p5588
aVrelive
p5589
aVgiddy
p5590
aVstar
p5591
aVstay
p5592
aVole
p5593
aVstab
p5594
aVpathways
p5595
aVnintendo
p5596
aVstan
p5597
aVfriends
p5598
aVgondooo
p5599
aVtomcat
p5600
aVsamsung
p5601
aVblogs
p5602
aVextras
p5603
aVbcz
p5604
aVdetermination
p5605
aVsubgames
p5606
aVsimpson
p5607
aVbcs
p5608
aVtodays
p5609
aVpardon
p5610
aVshek609
p5611
aVtodayy
p5612
aVandre
p5613
aVasian
p5614
aVzante
p5615
aV6pm
p5616
aVwhose
p5617
aVswag
p5618
aVbuddy
p5619
aVaug
p5620
aVcentres
p5621
aVtanisha1nonly
p5622
aVswan
p5623
aVsweetest
p5624
aVboitumelo_sa
p5625
aVpresents
p5626
aVaus
p5627
aVaur
p5628
aVtrousers
p5629
aVimperative
p5630
aVsorry
p5631
aVupdated
p5632
aVrescue
p5633
aVicepack
p5634
aVvoid
p5635
aVstolen
p5636
aVupdates
p5637
aVaffect
p5638
aVpitmantraining
p5639
aVlook
p5640
aVnum
p5641
aVcrops
p5642
aVmontoya
p5643
aVdoushite
p5644
aVsolution
p5645
aVboohoo
p5646
aVthered
p5647
aVhaiqal
p5648
aVheading
p5649
aVupp
p5650
aV9pm
p5651
aVlandlords
p5652
aVbabygirl
p5653
aVforce
p5654
aVgeekiest
p5655
aVjapanese
p5656
aVentp
p5657
aVcrave
p5658
aVfridayit
p5659
aVyach
p5660
aVeven
p5661
aVneh
p5662
aVpace
p5663
aVyeeaayy
p5664
aVorchestra
p5665
aVwhile
p5666
aVasia
p5667
aVmeowkd
p5668
aVmist45gameplay
p5669
aVnez
p5670
aVnex
p5671
aVney
p5672
aVnew
p5673
aVnet
p5674
aVever
p5675
aVdeantd
p5676
aVmee
p5677
aVmeg
p5678
aVmef
p5679
aVguysss
p5680
aVpancakes
p5681
aVmel
p5682
aVnever
p5683
aVtitanfall
p5684
aVmeh
p5685
aVdrew
p5686
aVmet
p5687
aVmew
p5688
aVreplacements
p5689
aVactive
p5690
aV100
p5691
aV101
p5692
aVsooooooooooo
p5693
aVmaman
p5694
aVdry
p5695
aVbiking
p5696
aVsjw
p5697
aVdri
p5698
aVcredit
p5699
aVresto
p5700
aVomar
p5701
aVsuitable
p5702
aVeyebrows
p5703
aVfantastic
p5704
aVcampaign
p5705
aVlolzz
p5706
aVcounty
p5707
aVsorrrrryyyyy
p5708
aVguests
p5709
aVdrowned
p5710
aVquits
p5711
aVcounts
p5712
aVresponsibilty
p5713
aVwatering
p5714
aVarms
p5715
aVcali
p5716
aVexited
p5717
aVcall
p5718
aVcalm
p5719
aVtypo
p5720
aVrecommend
p5721
aVtypa
p5722
aVsurvive
p5723
aVtype
p5724
aVtell
p5725
aVcalf
p5726
aVarma
p5727
aVposting
p5728
aVoscar
p5729
aVexpose
p5730
aVwarm
p5731
aVadult
p5732
aVconfetti
p5733
aVshahid
p5734
aVshepherds
p5735
aVroom
p5736
aVmoviee
p5737
aVsetup
p5738
aVroof
p5739
aVoley
p5740
aVmovies
p5741
aVguise
p5742
aVstillllllllllll
p5743
aVvodka
p5744
aVpaalam
p5745
aVgive
p5746
aVhoney
p5747
aVpromethazine
p5748
aVmidares
p5749
aVhomie
p5750
aVunforgettable
p5751
aVbraids
p5752
aVamazing
p5753
aVgrays
p5754
aVsath
p5755
aVwoaah
p5756
aVmassive
p5757
aVxpax
p5758
aVwheeeeeeeeeeeeeeeen
p5759
aVvicious
p5760
aVwhyyyy
p5761
aVthankyou
p5762
aVoshieer
p5763
aVpresident
p5764
aVovh
p5765
aVoldporridge
p5766
aVlesbian
p5767
aVkarachi
p5768
aVpurchase
p5769
aVattempt
p5770
aVthird
p5771
aVrecieved
p5772
aVjustinbieber
p5773
aVowls
p5774
aVgoodbye
p5775
aVowly
p5776
aVfifa
p5777
aVwut
p5778
aVpothole
p5779
aVwub
p5780
aVwua
p5781
aVdespondently
p5782
aVrashmi
p5783
aVbanged
p5784
aVsaving
p5785
aVbefore
p5786
aVggstepit
p5787
aVdeathly
p5788
aVpharma
p5789
aVweeko
p5790
aVpersonal
p5791
aVnotr
p5792
aVcrew
p5793
aVbetter
p5794
aVrtss
p5795
aVshinsengumi
p5796
aVweeks
p5797
aVgents
p5798
aVcombination
p5799
aVweakness
p5800
aVworkout
p5801
aVrunny
p5802
aVacademics
p5803
aVpandimensional
p5804
aVtherapy
p5805
aVised
p5806
aVwhaaaaaaat
p5807
aVoooooooouch
p5808
aVweenie
p5809
aVmeat
p5810
aVwend
p5811
aVlucy
p5812
aVgoddamn
p5813
aVpakistanis
p5814
aVfaraway
p5815
aVkatmtan
p5816
aVroast
p5817
aVmanbearpig
p5818
aVacoustic
p5819
aVwent
p5820
aVsham
p5821
aVside
p5822
aVbone
p5823
aVluck
p5824
aVreset
p5825
aVgunna
p5826
aVdean0133
p5827
aVskins
p5828
aVvava
p5829
aVtaught
p5830
aVbeginsighps3
p5831
aVforgot
p5832
aVnosmet
p5833
aVvelvet
p5834
aVopen
p5835
aVcontent
p5836
aVihop
p5837
aVreader
p5838
aVsurprise
p5839
aVdelegate
p5840
aVkoyal
p5841
aVfoto
p5842
aVturning
p5843
aVcutest
p5844
aVthrowbacks
p5845
aVhowre
p5846
aVbldg
p5847
aVwhammy
p5848
aVgahhh
p5849
aV247
p5850
aVramos
p5851
aVcement
p5852
aVhoodie
p5853
aVmistress
p5854
aVfots
p5855
aVans7gt
p5856
aVlogging
p5857
aVxur
p5858
aVstarts
p5859
aVisp
p5860
aVmessages
p5861
aV12000
p5862
aVinvestment
p5863
aVxue
p5864
aVbechos
p5865
aViso
p5866
aVsignature
p5867
aVswiping
p5868
aVarrived
p5869
aVhannibal
p5870
aVloud
p5871
aVfmt
p5872
aVstartd
p5873
aVcleaning
p5874
aV1115am2hours
p5875
aVfeatures
p5876
aVunfollowed
p5877
aVgrade
p5878
aVunfollower
p5879
aVhooh
p5880
aVbiomes
p5881
aVpopsicles
p5882
aVhood
p5883
aVgirly
p5884
aVafterschool
p5885
aVgirls
p5886
aVfabina
p5887
aVhollywood
p5888
aVhawke
p5889
aVreboarding
p5890
aVhorrendously
p5891
aVgym
p5892
aV2am
p5893
aVtokens
p5894
aVgyu
p5895
aVsorrry
p5896
aVhelen
p5897
aVhadnt
p5898
aVstocking
p5899
aVdistance
p5900
aVanxiety
p5901
aVshoutouts
p5902
aVafterbirth
p5903
aVsoonest
p5904
aVenabled
p5905
aVbitterness
p5906
aVmatter
p5907
aVfabulous
p5908
aVsilly
p5909
aVselfpublishers
p5910
aVmini
p5911
aVsees
p5912
aVpalace
p5913
aVmino
p5914
aVrattle
p5915
aVstomping
p5916
aVmodern
p5917
aVmind
p5918
aVmine
p5919
aVginger
p5920
aVming
p5921
aVseed
p5922
aVsharyl
p5923
aVseen
p5924
aVseem
p5925
aVmins
p5926
aVtells
p5927
aVvyapam
p5928
aVtopup
p5929
aVdevolution
p5930
aVchek
p5931
aVniece
p5932
aV7elw
p5933
aVpanties
p5934
aVbanaya
p5935
aVbuti
p5936
aVtym
p5937
aVwrists
p5938
aVmashed
p5939
aVtranslator
p5940
aVmario
p5941
aVregular
p5942
aVcontenders
p5943
aVyunnie
p5944
aVchrist
p5945
aVzealand
p5946
aVmassages
p5947
aV7am
p5948
aVdon
p5949
aVdoo
p5950
aVdom
p5951
aVdob
p5952
aVdoc
p5953
aValarm
p5954
aVdog
p5955
aVdefinitely
p5956
aVdovey
p5957
aVbeliebers
p5958
aVmdear
p5959
aVluckyyyy
p5960
aVannoyed
p5961
aVdot
p5962
aVaquatic
p5963
aVsneaks
p5964
aVlyrics
p5965
aVhunger
p5966
aVbakit
p5967
aVending
p5968
aVkaterina
p5969
aVyuppiieee
p5970
aVkgola
p5971
aVsneaking
p5972
aVmahone
p5973
aVmtap
p5974
aVprobs
p5975
aVweekends
p5976
aVacne
p5977
aVbipolar
p5978
aVsugar
p5979
aVfolks
p5980
aVfolder
p5981
aVwearing
p5982
aVmonica
p5983
aVtiles
p5984
aVpaperboys
p5985
aVgreatings
p5986
aVstop
p5987
aVchristopher
p5988
aVxialan
p5989
aVsmug
p5990
aVearl
p5991
aVearn
p5992
aVbar
p5993
aVbap
p5994
aVcaaaannntttt
p5995
aVbaz
p5996
aVricky_febs
p5997
aVbay
p5998
aVbag
p5999
aVbad
p6000
aVbae
p6001
aVpin7df9e60a
p6002
aVdisney
p6003
aVbam
p6004
aVmayor
p6005
aVeffing
p6006
aVears
p6007
aVplaystation
p6008
aVdecides
p6009
aVfluffy
p6010
aVtesting
p6011
aVdecided
p6012
aVsubject
p6013
aVpete
p6014
aVsaid
p6015
aVsorta
p6016
aVsail
p6017
aVshaved
p6018
aVpets
p6019
aVgroupmates
p6020
aVsorts
p6021
aVcosplayers
p6022
aVtamed
p6023
aVkepler452b
p6024
aVstiffening
p6025
aVomg
p6026
aVwears
p6027
aVwere
p6028
aVvitamin
p6029
aVlotion
p6030
aVomw
p6031
aVwerk
p6032
aVcousin
p6033
aVpicking
p6034
aVmeaningful
p6035
aVcreds
p6036
aVagainst
p6037
aVcuddles
p6038
aVund
p6039
aVsophia
p6040
aVfangirl
p6041
aVuni
p6042
aVcontribution
p6043
aVappeared
p6044
aVyaap
p6045
aVgathering
p6046
aV1300
p6047
aVheight
p6048
aVhygiene
p6049
aVperiscope
p6050
aVinitiative
p6051
aVmarmite
p6052
aVsprings
p6053
aVyaad
p6054
aVceafive
p6055
aVputs
p6056
aVbasis
p6057
aVabbymill18
p6058
aVyouuuuuu
p6059
aVthree
p6060
aVtiny
p6061
aVcommission
p6062
aVtine
p6063
aVashton5sos
p6064
aVinterest
p6065
aVoooooh
p6066
aVbasil
p6067
aVentered
p6068
aVlovely
p6069
aVokayy
p6070
aVputh
p6071
aVidol
p6072
aVthrew
p6073
aVwebsite
p6074
aVfitnes
p6075
aVmcg
p6076
aVsunshine
p6077
aVsooooo
p6078
aVmca
p6079
aVmints
p6080
aVyesbut
p6081
aVwhhr
p6082
aVexception
p6083
aVtank
p6084
aVnowi
p6085
aVburketeer
p6086
aVslp
p6087
aVtastes
p6088
aVhomebound
p6089
aVugly
p6090
aVnear
p6091
aVsuppose
p6092
aVitems
p6093
aVnowt
p6094
aVbalance
p6095
aVseven
p6096
aVmexico
p6097
aVsushi
p6098
aVcomplaint
p6099
aVjess
p6100
aVcant
p6101
aV22stans
p6102
aVcans
p6103
aVjest
p6104
aVfaked
p6105
aVmouse
p6106
aVparisa
p6107
aVwalkin
p6108
aVbottles
p6109
aVcools
p6110
aVbelle
p6111
aVmake
p6112
aVpolaroid
p6113
aVpicts
p6114
aV80x
p6115
aVpotentially
p6116
aVhahah
p6117
aVunfortunate
p6118
aV80s
p6119
aVlunes
p6120
aVella
p6121
aVkit
p6122
aVkik
p6123
aVgarlic
p6124
aVkim
p6125
aVjealous
p6126
aVkia
p6127
aVopportunity
p6128
aVthoughts
p6129
aVkid
p6130
aVbutter
p6131
aVbadsad
p6132
aVfuckboys
p6133
aVendit
p6134
aVyoure
p6135
aVsirkay
p6136
aVmaterials
p6137
aVbierce
p6138
aVpandora
p6139
aV801
p6140
aVflops
p6141
aVyours
p6142
aVleft
p6143
aVyeh
p6144
aVjust
p6145
aVkinky
p6146
aVyea
p6147
aVunfollow
p6148
aVunfair
p6149
aVyey
p6150
aVtransforms
p6151
aVhuman
p6152
aVmubank
p6153
aVfacts
p6154
aVyep
p6155
aVyes
p6156
aVyer
p6157
aVyet
p6158
aVbuyers
p6159
aVnudge
p6160
aVgoing2supply
p6161
aVfriendaaaaaaa
p6162
aVagile
p6163
aVcharacter
p6164
aVsalamat
p6165
aVjules
p6166
aVpotential
p6167
aVthankie
p6168
aVwhatsapp
p6169
aVsave
p6170
aVopt
p6171
aVbirthdaaaaayyyy
p6172
aVpreseason
p6173
aVops
p6174
aVfeets
p6175
aVrehash
p6176
aVtmrw
p6177
aVmanila_bro
p6178
aVorphan
p6179
aVbackground
p6180
aVgovt
p6181
aVhalaaaang
p6182
aVopi
p6183
aVdreams
p6184
aVshoulder
p6185
aVnevermind
p6186
aVhallyu
p6187
aVperforming
p6188
aVmanual
p6189
aVhtml
p6190
aVbebeee
p6191
aVbrk
p6192
aVlilybutle18
p6193
aVsignal
p6194
aVdeal
p6195
aVdeaf
p6196
aVsomehow
p6197
aVdead
p6198
aVwwe
p6199
aVintern
p6200
aVdear
p6201
aValtered
p6202
aVignore
p6203
aVnotification
p6204
aVeintlik
p6205
aVami_khang
p6206
aVplssssssssssssssss
p6207
aVtweeties
p6208
aVganbarimasu
p6209
aVplot
p6210
aVburn
p6211
aVlt333
p6212
aVpromos
p6213
aVseptum
p6214
aVsuper
p6215
aVluas
p6216
aVpuking
p6217
aVdonno
p6218
aVyelling
p6219
aVribs
p6220
aVcompliment
p6221
aVmagazine
p6222
aVafternoon
p6223
aVislands
p6224
aVpermission
p6225
aVotani
p6226
aVjump_julias
p6227
aVfunctions
p6228
aVnerve
p6229
aVwhats
p6230
aVsubs
p6231
aVlied
p6232
aVwhatp
p6233
aVselfie
p6234
aVcarrot
p6235
aVintellectual
p6236
aVdown
p6237
aVlies
p6238
aVshippers
p6239
aVprettylooks
p6240
aVamsterdam
p6241
aVjiyeons
p6242
aVsubj
p6243
aVamazingly
p6244
aVflying
p6245
aVcantik
p6246
aVoffshoring
p6247
aVeditor
p6248
aVlolhook
p6249
aVstrucked
p6250
aVencanta
p6251
aVworsts
p6252
aVpake
p6253
aV31st
p6254
aVchenoweth
p6255
aValljudith
p6256
aVsurrender
p6257
aV222
p6258
aVfback
p6259
aVmurielle
p6260
aVbuilds
p6261
aVunderstood
p6262
aVattached
p6263
aVtrends
p6264
aVplusmiles
p6265
aVbenchmarks
p6266
aVzara
p6267
aVdaddy
p6268
aVaasramany
p6269
aVdelete
p6270
aVathabasca
p6271
aVpimples
p6272
aVclassic
p6273
aVtoss
p6274
aVcovers
p6275
aVdrive
p6276
aVmanuellatchgn
p6277
aVsweeeeeeeety
p6278
aVawhile
p6279
aVshit
p6280
aVtose
p6281
aVbroes
p6282
aVhugsx
p6283
aVdikha
p6284
aValerts
p6285
aVaunty
p6286
aVhanded
p6287
aVbailona
p6288
aVsidni
p6289
aVhangin
p6290
aVbeheaviour
p6291
aVcabincrew
p6292
aVdelivered
p6293
aVdies
p6294
aVthakyou
p6295
aVfelt
p6296
aVdiet
p6297
aVfell
p6298
aVreign
p6299
aVdiem
p6300
aVtransfers
p6301
aVluke5sos
p6302
aVweekend
p6303
aVfela
p6304
aVbillion
p6305
aVfsa
p6306
aVhappening
p6307
aVapology
p6308
aVpotato
p6309
aVassume
p6310
aVblushing
p6311
aVdaily
p6312
aVgorilla
p6313
aVpremiums
p6314
aVfss
p6315
aVfurtrimmed
p6316
aVteeth
p6317
aVseouljins
p6318
aVanglenelson
p6319
aVflapjacks
p6320
aVoverdue
p6321
aVmanaged
p6322
aVbutgood
p6323
aVskip
p6324
aVsouls
p6325
aVlaura
p6326
aVmanager
p6327
aVmile
p6328
aVskin
p6329
aVmilo
p6330
aVmilk
p6331
aVmisread
p6332
aVsuicide
p6333
aVyummy
p6334
aVburnout
p6335
aVshow
p6336
aVfather
p6337
aVdisgusting
p6338
aVcountdown
p6339
aVanswered
p6340
aVfinally
p6341
aVappendicitis
p6342
aVmarks
p6343
aVsuffered
p6344
aV1451834461
p6345
aVhopehousekids
p6346
aVkhamis
p6347
aVdegrassi
p6348
aVtimog
p6349
aVcongratulating
p6350
aVtacos
p6351
aVdinghy
p6352
aVuneventful
p6353
aVadvised
p6354
aVbartender
p6355
aVfragments
p6356
aVdin
p6357
aVdii
p6358
aVelevate
p6359
aVdid
p6360
aVdie
p6361
aVcheapest
p6362
aVdia
p6363
aVtravels
p6364
aVitem
p6365
aVexcellence
p6366
aVhwaiting
p6367
aVdiz
p6368
aVdit
p6369
aVround
p6370
aVdis
p6371
aVshave
p6372
aVolympic
p6373
aVunexpected
p6374
aVvilla
p6375
aVmiryenda
p6376
aVdunwan
p6377
aVeating
p6378
aVcuddly
p6379
aVtargets
p6380
aVnemanja
p6381
aVspanners
p6382
aVheres
p6383
aVbo2
p6384
aVbriliant
p6385
aVfavour
p6386
aVreunite
p6387
aVsuspect
p6388
aVgoooood
p6389
aVinternational
p6390
aVummmm
p6391
aVfilled
p6392
aVsodders
p6393
aVtransparency
p6394
aVwail
p6395
aVmussels
p6396
aVmakeup
p6397
aVfrench
p6398
aVchilton
p6399
aVmerlin
p6400
aVfeverfew
p6401
aVelses
p6402
aVinfra
p6403
aVwait
p6404
aVbox
p6405
aVboy
p6406
aVyessss
p6407
aVstormy
p6408
aVcanadian
p6409
aVshift
p6410
aVstrudel
p6411
aVbos
p6412
aVbot
p6413
aVbow
p6414
aVboi
p6415
aVaddictive
p6416
aVsuggestion
p6417
aVboo
p6418
aVhbu
p6419
aVcaramello
p6420
aVbob
p6421
aVminecraft
p6422
aVbruised
p6423
aVmassage
p6424
aVgenuinely
p6425
aVteenage
p6426
aVuseful
p6427
aVkebab
p6428
aVcolleagues
p6429
aVzareen
p6430
aVrefuses
p6431
aVverge
p6432
aValhamdullilah
p6433
aVhotels
p6434
aVeverybody
p6435
aVtroops
p6436
aVbaes
p6437
aVariel
p6438
aVvisit
p6439
aVfrance
p6440
aVwayhh
p6441
aVthisgtanamyid
p6442
aVperu
p6443
aVahhh
p6444
aVkrystal
p6445
aVthru
p6446
aVcheckout
p6447
aVbaek
p6448
aVladygaga
p6449
aVfar7an
p6450
aVsharing
p6451
aVsns
p6452
aVfanta
p6453
aVooh
p6454
aVcintiq
p6455
aVnatake
p6456
aVinshaallah
p6457
aVrigid
p6458
aVolive
p6459
aVamelia
p6460
aVeffort
p6461
aVrobe
p6462
aVfly
p6463
aVthermos
p6464
aVrecites
p6465
aVtokyo
p6466
aVavoiding
p6467
aVsoul
p6468
aVreviews
p6469
aVsoup
p6470
aVsour
p6471
aVull
p6472
aVgrowing
p6473
aVmaking
p6474
aVarrive
p6475
aVbites
p6476
aVnearest
p6477
aVcrazy
p6478
aVranking
p6479
aVpredict
p6480
aVreynold
p6481
aVconfused
p6482
aVagent
p6483
aVcouncil
p6484
aVparkshare
p6485
aVpink
p6486
aVfalklands
p6487
aVnys
p6488
aVnecklaces
p6489
aVping
p6490
aVchemical
p6491
aVtill
p6492
aVsunday
p6493
aVexolt3
p6494
aVpure
p6495
aVswore
p6496
aVpins
p6497
aVnyc
p6498
aVautofocus
p6499
aVtesticle
p6500
aVidk
p6501
aVmap
p6502
aVstaying
p6503
aVmar
p6504
aVmat
p6505
aVmay
p6506
aVmax
p6507
aVgujarat
p6508
aVmaa
p6509
aVmac
p6510
aVumair
p6511
aVmad
p6512
aVmag
p6513
aVmah
p6514
aVmak
p6515
aVguys
p6516
aVgrow
p6517
aVman
p6518
aVwwoooo
p6519
aVneck
p6520
aVmaybe
p6521
aVchef
p6522
aVfluent
p6523
aVstandens
p6524
aVswitch
p6525
aVkillers
p6526
aVjail
p6527
aVdeposit
p6528
aVoooooouch
p6529
aV1190
p6530
aVbasket
p6531
aVtall
p6532
aVgesture
p6533
aVcute
p6534
aVzzzzzzplease
p6535
aVshoes
p6536
aVlsa
p6537
aVwishing
p6538
aVlsh
p6539
aVfursat
p6540
aVsinaloa
p6541
aVshake
p6542
aVmarshmallows
p6543
aVirene
p6544
aVsatya
p6545
aVgroup
p6546
aVthank
p6547
aVyaaaah
p6548
aVinteresting
p6549
aVencompasses
p6550
aVyorkshire
p6551
aVblends
p6552
aVthanx
p6553
aVlisting
p6554
aVtweets
p6555
aVours
p6556
aVmain
p6557
aVbrainer
p6558
aVthanq
p6559
aVemailed
p6560
aVviews
p6561
aVbein
p6562
aVkiller
p6563
aVshatter
p6564
aVsoulful
p6565
aVsooner
p6566
aVlunch
p6567
aVsrsly
p6568
aVkkk
p6569
aVdoednt
p6570
aVpluckerssss
p6571
aVkilled
p6572
aVfudge
p6573
aVx18
p6574
aVx19
p6575
aVpeasant
p6576
aVrock
p6577
aVx10
p6578
aVx11
p6579
aVx12
p6580
aVx13
p6581
aVx14
p6582
aVx15
p6583
aVx16
p6584
aVx17
p6585
aVrecentlywebsite
p6586
aVsopranos
p6587
aVlycra
p6588
aVselangor
p6589
aVaaaaaaaaaaaah
p6590
aVfever
p6591
aVahmad
p6592
aVaaaaaaaaaaaaa
p6593
aVgirl
p6594
aVgot7
p6595
aVzonzofox
p6596
aVliving
p6597
aVbillions
p6598
aV1710
p6599
aVjackson
p6600
aV3rd
p6601
aVrolls
p6602
aVmiles
p6603
aVitmorning
p6604
aVsmells
p6605
aVgrogol
p6606
aVdutch
p6607
aVnudes
p6608
aVcorrect
p6609
aVearlier
p6610
aVorz
p6611
aVmonster
p6612
aVworries
p6613
aVdaftbut
p6614
aVcalifornia
p6615
aVx15340
p6616
aVjacks
p6617
aVbrooke
p6618
aVord
p6619
aVcough
p6620
aVawell
p6621
aVadvance
p6622
aVcarnival
p6623
aVwaiter
p6624
aVheadphones
p6625
aVthing
p6626
aVjannatul
p6627
aVyjcosplay
p6628
aVyess
p6629
aVthink
p6630
aVwaited
p6631
aVfirst
p6632
aVcheese
p6633
aVsepanx
p6634
aVdihapus
p6635
aVamericano
p6636
aVquestion
p6637
aVrachel
p6638
aVlong
p6639
aVsuspended
p6640
aVcarry
p6641
aVsounds
p6642
aVrome
p6643
aVseungchan
p6644
aVlittle
p6645
aVarch
p6646
aVslept
p6647
aVanyone
p6648
aVplains
p6649
aVspeaking
p6650
aVmeme
p6651
aVeyes
p6652
aVloneliest
p6653
aVemyu
p6654
aVbroadcast
p6655
aVhillary
p6656
aVdanny
p6657
aVeyed
p6658
aVbutt
p6659
aVcleanse
p6660
aVcologne
p6661
aVsailing
p6662
aVnstp
p6663
aVgotta
p6664
aVknives
p6665
aVventure
p6666
aVbergerac
p6667
aVsnoozed
p6668
aVreleasetypically
p6669
aVwhale
p6670
aVcoconut
p6671
aVlick
p6672
aVpleaseeeee
p6673
aVmannerfuls
p6674
aVwknd
p6675
aVlice
p6676
aVvoices
p6677
aVdash
p6678
aVpastry
p6679
aVsulk
p6680
aVcocktaily
p6681
aVkevin
p6682
aVwarsaw
p6683
aVspeakers
p6684
aVanswering
p6685
aVupgrading
p6686
aVsquad
p6687
aVbailey
p6688
aVperformance
p6689
aVchannel
p6690
aVultimate
p6691
aV201
p6692
aV200
p6693
aVpain
p6694
aV1125am
p6695
aVnormal
p6696
aVtrack
p6697
aVpaid
p6698
aVrehearsal
p6699
aVbaaack
p6700
aVbeta
p6701
aVpurty
p6702
aVinspirit
p6703
aVpair
p6704
aVbeth
p6705
aVwoooo
p6706
aVqueens
p6707
aVespecially
p6708
aVsurprising
p6709
aVtelevoting
p6710
aV10x12
p6711
aVk3g
p6712
aVproperly
p6713
aVshop
p6714
aVshor
p6715
aVbruhhhdopjones
p6716
aVshot
p6717
aVnewer
p6718
aVcertification
p6719
aVcontemporary
p6720
aVsites
p6721
aVdaaru
p6722
aVestoy
p6723
aVjordanian
p6724
aVshoe
p6725
aVcorner
p6726
aVsponsorship
p6727
aVtiddler
p6728
aVmubarak
p6729
aVomgyoure
p6730
aVdick
p6731
aVbehind
p6732
aVgtgt12th
p6733
aVblack
p6734
aVivyi
p6735
aVvainglory
p6736
aVawareness
p6737
aVsweetbj
p6738
aV200000
p6739
aVhippo
p6740
aVget
p6741
aVp90
p6742
aVgooffeanottere
p6743
aVsmhdamn
p6744
aVmuna
p6745
aVhailey
p6746
aVemployers
p6747
aVunimportant
p6748
aVuta
p6749
aVnearly
p6750
aVgee
p6751
aVmaryhicks18
p6752
aVspicy
p6753
aVgen
p6754
aVgem
p6755
aVgel
p6756
aVbuuuut
p6757
aVdianna
p6758
aVsensor
p6759
aVthanksss
p6760
aVlechon
p6761
aVhyper
p6762
aVmorning
p6763
aVfanboy
p6764
aVstupid
p6765
aValvadhaau
p6766
aVfinishing
p6767
aV925
p6768
aVsilently
p6769
aVkernel
p6770
aV2500k
p6771
aVhonesty
p6772
aVseat
p6773
aVcocktails
p6774
aVinfrastructure
p6775
aVteething
p6776
aVpebble
p6777
aVwonder
p6778
aVindicted
p6779
aVcamping
p6780
aVuts
p6781
aVmadeciyuu
p6782
aV78x
p6783
aVforecast
p6784
aVenough
p6785
aVgaga
p6786
aVreading
p6787
aVacross
p6788
aVwhispered
p6789
aVkardamena
p6790
aVaugust
p6791
aVparent
p6792
aVtut
p6793
aVkilling
p6794
aVtum
p6795
aVtub
p6796
aVtud
p6797
aVdates
p6798
aVneeeeeeeeeeeeeeeeein
p6799
aVjfc
p6800
aVsimilar
p6801
aVtrades
p6802
aVmorningits
p6803
aVaccording
p6804
aVtridon
p6805
aVtour
p6806
aVdisappointment
p6807
aVawards
p6808
aVcontractually
p6809
aVamong
p6810
aVbauuuuuuuukkk
p6811
aVketchburning
p6812
aVthoo
p6813
aVcatspjs
p6814
aVwhaaaaaat
p6815
aVsuger
p6816
aVmehtab
p6817
aVcancel
p6818
aVnose
p6819
aVconsidering
p6820
aVmare
p6821
aVarts
p6822
aVmara
p6823
aVfolow
p6824
aVwobble
p6825
aVedits
p6826
aVmark
p6827
aVmart
p6828
aVworkshop
p6829
aVwobbly
p6830
aVjudging
p6831
aVnaruto
p6832
aVmary
p6833
aVmager
p6834
aVchalet
p6835
aVshopping
p6836
aV30000
p6837
aVoffered
p6838
aVdkt
p6839
aVbiblethump
p6840
aVwhips
p6841
aVwalkersmithway
p6842
aVwake
p6843
aVloryngoodlincschambercouk
p6844
aVblois
p6845
aVhardcore
p6846
aVthose
p6847
aVsound
p6848
aV00962778381838
p6849
aVturtles
p6850
aVukiss
p6851
aV1100
p6852
aVpromising
p6853
aVcoco
p6854
aVhmmmm
p6855
aVginge
p6856
aVcock
p6857
aVjokers
p6858
aVunitycsgoteam
p6859
aVeventually
p6860
aVbbutt
p6861
aVsecondary
p6862
aVrammed
p6863
aVcoffee
p6864
aVsleeping
p6865
aVmiddle
p6866
aVsudden
p6867
aV12th
p6868
aVtraffickers
p6869
aVprotein
p6870
aVeveryday
p6871
aVdiseases
p6872
aVpap
p6873
aVdifferent
p6874
aVdieididieieiei
p6875
aVharsh
p6876
aVdoctor
p6877
aVbalik
p6878
aVpay
p6879
aVedwin
p6880
aVsame
p6881
aVtheocratic
p6882
aVspeech
p6883
aVurself
p6884
aVsams
p6885
aVcatamis
p6886
aVstruggling
p6887
aVpak
p6888
aVpal
p6889
aVcallllllls
p6890
aVwimbledon
p6891
aVlagiii
p6892
aVoil
p6893
aVassist
p6894
aVcarriageway
p6895
aVrainy
p6896
aVcompanion
p6897
aVrunning
p6898
aVclimbing
p6899
aVtotally
p6900
aVp90x
p6901
aVweave
p6902
aVdrain
p6903
aVintermittent
p6904
aVamazes
p6905
aVconvener
p6906
aVwellington
p6907
aVsolve
p6908
aVbottle
p6909
aVmorninggggg
p6910
aVtito
p6911
aVamazed
p6912
aVgates
p6913
aVmuahhh
p6914
aVmoney
p6915
aVsights
p6916
aVboah
p6917
aVaspect
p6918
aVfahad
p6919
aVjimin
p6920
aVnooooow
p6921
aVdaykeep
p6922
aVasthma
p6923
aVcancer
p6924
aVnick
p6925
aVyaaay
p6926
aVpups
p6927
aVnap
p6928
aVpile
p6929
aVpjs
p6930
aVyaaah
p6931
aVheavies
p6932
aVxbox
p6933
aVcareers
p6934
aVjperkovic93
p6935
aVjake
p6936
aVkongabeemannoni
p6937
aVhopia
p6938
aVtownssssss
p6939
aVchainsaw
p6940
aVmoo
p6941
aVmon
p6942
aVmom
p6943
aVmob
p6944
aVwaitting
p6945
aVdisappointed
p6946
aVgrim
p6947
aVchristina
p6948
aVadams
p6949
aVchristine
p6950
aVinyan99
p6951
aVserves
p6952
aVserver
p6953
aVthorpe
p6954
aVaudience
p6955
aVeither
p6956
aVomgg
p6957
aVdrainage
p6958
aVfulfil
p6959
aVdoli
p6960
aVlibmysqlclientdev
p6961
aVdoll
p6962
aVtitan
p6963
aVpronounce
p6964
aVgurgaon
p6965
aVbheyps
p6966
aVshogi
p6967
aVsenight468
p6968
aVmatching
p6969
aVgross
p6970
aVkme
p6971
aVellis
p6972
aVconfirm
p6973
aVtodaythats
p6974
aVoverly
p6975
aVellie
p6976
aVcritical
p6977
aVkms
p6978
aVpanics
p6979
aVshitfaced
p6980
aVdoggy
p6981
aVnaaaaan
p6982
aVmwah
p6983
aVcramps
p6984
aVohgod
p6985
aVbuckling
p6986
aVraincoat
p6987
aVseconds
p6988
aVfitness
p6989
aVtumour
p6990
aVakon
p6991
aVbroken
p6992
aVdastardly
p6993
aVselfxss
p6994
aVskeem
p6995
aVmontedoa
p6996
aVx32
p6997
aVx33
p6998
aVx30
p6999
aVx31
p7000
aVx36
p7001
aVx37
p7002
aVx34
p7003
aVtease
p7004
aVroar
p7005
aVisland
p7006
aVx38
p7007
aVx39
p7008
aVdrag
p7009
aVairline
p7010
aVyouve
p7011
aVmixed
p7012
aVroad
p7013
aVcheckup
p7014
aVwhitey
p7015
aVlands
p7016
aVtheshoebibles
p7017
aVcoupon
p7018
aVspreading
p7019
aVkalin
p7020
aVblessed
p7021
aVgomen
p7022
aVschemes
p7023
aVreferences
p7024
aVinbox
p7025
aVstrip
p7026
aVgomez
p7027
aVbraving
p7028
aVcreamist
p7029
aVdistracted
p7030
aVbrianazabrocki
p7031
aVlions
p7032
aVseasonal
p7033
aVtodaybought
p7034
aVmornings
p7035
aVreplies
p7036
aVunsettled
p7037
aVfricken
p7038
aVstriker
p7039
aVsunway
p7040
aVbookstore
p7041
aVlaine
p7042
aV1590
p7043
aVchati
p7044
aVwaffle
p7045
aVdownstairs
p7046
aVbunnys
p7047
aVbelated
p7048
aVromantic
p7049
aVfarmiga
p7050
aVitsfoodsporn
p7051
aVearlynow
p7052
aVludlow
p7053
aVstrawberry
p7054
aVsuitcase
p7055
aVmanuel
p7056
aVvideos
p7057
aVrichardits
p7058
aVyuck
p7059
aVcarpe
p7060
aVbiscuit
p7061
aVdeep
p7062
aVsampath
p7063
aVcaketenerina
p7064
aVenable
p7065
aVgr8
p7066
aVfile
p7067
aVgirlfriend
p7068
aVlifetime
p7069
aVouttake
p7070
aVfilm
p7071
aVfill
p7072
aVagain
p7073
aVdrivers
p7074
aVzelda
p7075
aVeon
p7076
aVfield
p7077
aVzaynmalik
p7078
aVthousand
p7079
aVmamaya
p7080
aVbrandi
p7081
aVaroundat
p7082
aVsafaa
p7083
aVobsessed
p7084
aVstudents
p7085
aVbangtans
p7086
aVkeepin
p7087
aVgurly
p7088
aVimportant
p7089
aVkarlie
p7090
aVbrands
p7091
aVlaper
p7092
aV20mins
p7093
aVremote
p7094
aVbeleaf
p7095
aVpercentage
p7096
aVgiguilty
p7097
aVboong
p7098
aVhaired
p7099
aValright
p7100
aV615pm
p7101
aVstarting
p7102
aVcaste
p7103
aVrepresent
p7104
aVliat
p7105
aVforget
p7106
aVfounder
p7107
aVkoalas
p7108
aVsuns
p7109
aVdollar
p7110
aVawhh
p7111
aVheheok
p7112
aVbrowsers
p7113
aVhigher
p7114
aVtalks
p7115
aVliao
p7116
aVliam
p7117
aVchildren
p7118
aVemily
p7119
aVliquorice
p7120
aVcri
p7121
aVimma
p7122
aVredecorate
p7123
aVfelton
p7124
aVholborn
p7125
aVweebly
p7126
aVenjoying
p7127
aVmandela
p7128
aVmornin
p7129
aVpremium
p7130
aVparcel
p7131
aVsitting
p7132
aVpuffy
p7133
aVbillie
p7134
aVaware
p7135
aVfall
p7136
aVdifference
p7137
aVjennyjean22
p7138
aVpre
p7139
aVwashing
p7140
aVdampen
p7141
aVoneal
p7142
aVcelebrity
p7143
aVwsj
p7144
aVhvng
p7145
aVfiverr
p7146
aVprypv
p7147
aVsaudi
p7148
aV0330
p7149
aV20th
p7150
aVjokid
p7151
aVphonegraphs
p7152
aVburger
p7153
aVzero
p7154
aVtitles
p7155
aVperspective
p7156
aVfurther
p7157
aVgrabe
p7158
aVappreciating
p7159
aVcilic
p7160
aVdefence
p7161
aVaccnt
p7162
aVwalang
p7163
aVabi
p7164
aVstool
p7165
aVabp
p7166
aVniamh
p7167
aVabs
p7168
aVsooooooo
p7169
aVabu
p7170
aVdongwoos
p7171
aVfingerscrossed
p7172
aVpublic
p7173
aVmovement
p7174
aVhotbed
p7175
aVtattoos
p7176
aVcoca
p7177
aVmull
p7178
aVklee
p7179
aVloiyals
p7180
aVminuets
p7181
aVjonah
p7182
aVranges
p7183
aVcancelled
p7184
aVbecauseyour
p7185
aVchristy
p7186
aVfantasies
p7187
aVfwm
p7188
aVsearch
p7189
aVbible
p7190
aVakooooooooooooooo
p7191
aVjackie
p7192
aVstella
p7193
aVairport
p7194
aVuntruth
p7195
aVervin
p7196
aVpublished
p7197
aVmentions
p7198
aVnarrow
p7199
aV13m
p7200
aVmilks
p7201
aVscurri
p7202
aVbuset
p7203
aVafrica
p7204
aVmunchkin
p7205
aVslr
p7206
aVemptier
p7207
aVlassis
p7208
aVtrish
p7209
aVeye
p7210
aVtameside
p7211
aVdestination
p7212
aVtexting
p7213
aVpuke
p7214
aVmuller
p7215
aVcomparing
p7216
aVomgggg
p7217
aVtacky
p7218
aVwiper
p7219
aVachieving
p7220
aVpawing
p7221
aVagessss
p7222
aVcrazyyyy
p7223
aVcanon
p7224
aVsacconejolys
p7225
aVtoowell
p7226
aVahmive
p7227
aVlanded
p7228
aVlemons
p7229
aVparticular
p7230
aVpmsl
p7231
aVkaraoke
p7232
aVtown
p7233
aVdey
p7234
aVnone
p7235
aVhour
p7236
aVbakwas
p7237
aVnono
p7238
aVrecall
p7239
aVdes
p7240
aVsucks
p7241
aV_topeh
p7242
aVdev
p7243
aVdew
p7244
aVguards
p7245
aVdel
p7246
aVdem
p7247
aVden
p7248
aVdeo
p7249
aVdef
p7250
aVstubborn
p7251
aVshark
p7252
aVsharm
p7253
aVnumbero
p7254
aVhacharatt
p7255
aVshare
p7256
aVfangirled
p7257
aVbreathing
p7258
aVnumbers
p7259
aVpurchased
p7260
aVpotatos
p7261
aVsharp
p7262
aVshxbs
p7263
aVunappreciated
p7264
aVneeds
p7265
aVawkward
p7266
aVacts
p7267
aVneeda
p7268
aVmaps
p7269
aVryu
p7270
aVberigaud
p7271
aVmajalah
p7272
aVcharms
p7273
aVpetite
p7274
aVadvice
p7275
aVpas
p7276
aVblood
p7277
aVcayton
p7278
aVcoming
p7279
aVresponse
p7280
aVbleak
p7281
aVorchard
p7282
aVcoat
p7283
aVulti
p7284
aVdragon
p7285
aVwishes
p7286
aVlmfaooooo
p7287
aVpleasure
p7288
aVplaying
p7289
aVnhe
p7290
aVchellos
p7291
aVrang
p7292
aVuname
p7293
aVthrough
p7294
aVexistence
p7295
aVsuffer
p7296
aVmessed
p7297
aVubusy
p7298
aVpens
p7299
aVadios
p7300
aVthnx
p7301
aVreal_liam_payne
p7302
aVbaat
p7303
aVluceleva21
p7304
aVfamished
p7305
aVlate
p7306
aV25x30
p7307
aVbaao
p7308
aVfollbaaack
p7309
aVpad
p7310
aVhayoung
p7311
aVprims
p7312
aV121st
p7313
aVlongeryet
p7314
aVyokokuali
p7315
aVuhc
p7316
aVgooo
p7317
aVnoticing
p7318
aVuhh
p7319
aVwalls
p7320
aVweekendsunshinerain
p7321
aVoxford
p7322
aVokk
p7323
aVnaging
p7324
aVcomplain
p7325
aVassociation
p7326
aVmystery
p7327
aVeasily
p7328
aVbagi
p7329
aVfantasy
p7330
aVmicro
p7331
aVsomeone
p7332
aVgoofy
p7333
aVcuting
p7334
aVmonsoon
p7335
aVrhys
p7336
aVgarrus
p7337
aVeveryone
p7338
aVmental
p7339
aVvuly
p7340
aVidek
p7341
aVhouse
p7342
aVfish
p7343
aVhard
p7344
aVidea
p7345
aVconnect
p7346
aVahahha
p7347
aVthick
p7348
aV26th
p7349
aVgamejam
p7350
aVlovers
p7351
aVpehly
p7352
aVweirddd
p7353
aVdamnits
p7354
aVpigeon
p7355
aVmojo
p7356
aVacting
p7357
aVprint
p7358
aVpathetic
p7359
aVcasillas
p7360
aVcommits
p7361
aVabudhabi
p7362
aV0100
p7363
aVpleasant
p7364
aVextraordinary
p7365
aVgiveaway
p7366
aVmembers
p7367
aVbacked
p7368
aVdorset
p7369
aVbeginning
p7370
aVpeed
p7371
aVbenefits
p7372
aVcomputers
p7373
aVgot7s
p7374
aV5sos
p7375
aVgif
p7376
aVcoursetalking
p7377
aVbotany
p7378
aVdont
p7379
aVniende
p7380
aVafternon
p7381
aVbenchers
p7382
aVdone
p7383
aVdong
p7384
aVpapertown
p7385
aVteds
p7386
aVtou
p7387
aVkoi
p7388
aVkillin
p7389
aVbuddyyyy
p7390
aVselfieeeee
p7391
aVgoodies
p7392
aVkoe
p7393
aVhamsters
p7394
aVleast
p7395
aVpaint
p7396
aVstatement
p7397
aVmama
p7398
aVkos
p7399
aVlease
p7400
aVmuscles
p7401
aVtopwater
p7402
aVstu
p7403
aVdddy
p7404
aVpark
p7405
aVdentist
p7406
aVpart
p7407
aVlivestream
p7408
aVfavorable
p7409
aVbelieve
p7410
aVshravan
p7411
aV18c
p7412
aVgotten
p7413
aVplateaus
p7414
aVyouth
p7415
aV18s
p7416
aVsupposed
p7417
aVlourdes
p7418
aVinteractive
p7419
aVswerve
p7420
aVoutta
p7421
aVages
p7422
aVdreamily
p7423
aVdenims
p7424
aVhangout
p7425
aV01282
p7426
aVaged
p7427
aVorders
p7428
aVditched
p7429
aVflared
p7430
aVdancing
p7431
aVshamuons
p7432
aVcouch
p7433
aVbuyorder
p7434
aVcaesar
p7435
aVbuild
p7436
aVbusyearly
p7437
aVbayan
p7438
aVleaking
p7439
aVeggs
p7440
aVsalmon
p7441
aVkatekyn
p7442
aVsmtm4
p7443
aVmost
p7444
aVservices
p7445
aVallclear
p7446
aVagainawalmu
p7447
aVgoodwill
p7448
aVsighsdcodedboii
p7449
aVloners
p7450
aVstoryline
p7451
aVsolvo
p7452
aVweigh
p7453
aVjesse
p7454
aVjoining
p7455
aVthomas
p7456
aVcinnamon
p7457
aVparticularly
p7458
aVnahi
p7459
aVtalanted
p7460
aVaaaaaand
p7461
aVswelling
p7462
aVgim
p7463
aVhopper
p7464
aVhugging
p7465
aVoutdoor
p7466
aVrelation
p7467
aVcarefully
p7468
aVfine
p7469
aVfind
p7470
aVfing
p7471
aVdegeneres
p7472
aVgiant
p7473
aVruin
p7474
aVpoppin
p7475
aV19th
p7476
aVunhappy
p7477
aVutdyork
p7478
aVfiend
p7479
aVtoronto
p7480
aVweve
p7481
aVmein
p7482
aVkafi
p7483
aVluke
p7484
aVbengalis
p7485
aVcourage
p7486
aVsalut
p7487
aVhonma
p7488
aVcalifornias
p7489
aVtournaments
p7490
aVhomeslice
p7491
aVremove
p7492
aVcommon
p7493
aVwitcher
p7494
aVpod
p7495
aVksoo
p7496
aVcynical
p7497
aVvine
p7498
aVcontrolls
p7499
aVlion
p7500
aVindividual
p7501
aVmanly
p7502
aV6gb
p7503
aVsurrendered
p7504
aVhappinessss
p7505
aVretweet
p7506
aVchose
p7507
aVrepairs
p7508
aVnixus
p7509
aVexpert
p7510
aVvisiting
p7511
aVfani
p7512
aVpositivity
p7513
aVinshallah
p7514
aVplease
p7515
aVgoodafternoon
p7516
aVnewyork
p7517
aVfans
p7518
aVfany
p7519
aVexpo
p7520
aVpleass
p7521
aVchampagne
p7522
aViks
p7523
aVikr
p7524
aVrosie
p7525
aVresponses
p7526
aVpisses
p7527
aVpepsi
p7528
aVsheeps
p7529
aVdrawings
p7530
aVxenophobes
p7531
aVpissed
p7532
aVotamendi
p7533
aVdangit
p7534
aVpowers
p7535
aVannual
p7536
aVsuede
p7537
aValot
p7538
aVpenrithemu
p7539
aVmean
p7540
aVunstan
p7541
aVupgraded
p7542
aVcakes
p7543
aVsiddi
p7544
aVpoint
p7545
aVsimple
p7546
aVravages
p7547
aVlbs
p7548
aVandar
p7549
aVgypsy
p7550
aVdances
p7551
aVdancer
p7552
aVsimply
p7553
aVupgrades
p7554
aVcakei
p7555
aVthroughout
p7556
aVexpensive
p7557
aVpatiently
p7558
aVschoolworks
p7559
aVraise
p7560
aVhelmy
p7561
aVtgif
p7562
aVsecret
p7563
aVtonsillitis
p7564
aVslutshamed
p7565
aVireland
p7566
aVmeeting
p7567
aVvans
p7568
aVanythin
p7569
aVgay
p7570
aVgav
p7571
aVhonorary
p7572
aVgas
p7573
aVhahahhaah
p7574
aVgal
p7575
aVunderstand
p7576
aVwhitney
p7577
aVprices
p7578
aVkathd
p7579
aVpierce
p7580
aVfansign
p7581
aVraw
p7582
aVsolid
p7583
aVbill
p7584
aVconvo
p7585
aVelections
p7586
aVpyaaz
p7587
aVheyy
p7588
aVfun
p7589
aVfuk
p7590
aVfuh
p7591
aVwhimpers
p7592
aVteteh
p7593
aVcentury
p7594
aVshades
p7595
aVthessidew877
p7596
aVengg
p7597
aVitself
p7598
aVfinalists
p7599
aVfacade
p7600
aVleaving
p7601
aVdistrubed
p7602
aVitaly
p7603
aVawusasho
p7604
aVmigraine
p7605
aVthesis
p7606
aVsome1
p7607
aVengrossed
p7608
aVcorridor
p7609
aVgreyed
p7610
aVruth
p7611
aVdevelopment
p7612
aVunvarnished
p7613
aVdhabi
p7614
aVkeys
p7615
aVassignment
p7616
aVyesterday
p7617
aVmoment
p7618
aVsantorini
p7619
aVpurpose
p7620
aVhows
p7621
aVtask
p7622
aVspent
p7623
aVflags
p7624
aVthoroughly
p7625
aVsoooooooner
p7626
aVentry
p7627
aVspend
p7628
aVinsensitivenessridiculous
p7629
aVdarn
p7630
aVwelcomahave
p7631
aVfrom
p7632
aVhierro
p7633
aVbackflip
p7634
aVmacedonian
p7635
aVshape
p7636
aVpchelok
p7637
aValternative
p7638
aVbi0
p7639
aVjumpsuit
p7640
aVrundown
p7641
aVcut
p7642
aVcus
p7643
aVcup
p7644
aVhated
p7645
aVdeputy
p7646
aVtfw
p7647
aVcuz
p7648
aVjasmingarrick
p7649
aVsource
p7650
aVcue
p7651
aVsuma
p7652
aVwags
p7653
aVhomies
p7654
aVsnap
p7655
aVdard
p7656
aVexcited
p7657
aVhates
p7658
aVbin
p7659
aVbio
p7660
aVmanage
p7661
aVxbsbabnb
p7662
aVmischievousness
p7663
aVrebound
p7664
aVteambailonaofc
p7665
aVmatters
p7666
aVredeem
p7667
aVbiz
p7668
aVlilsisbro
p7669
aVnarcissist
p7670
aVbit
p7671
aVpixars
p7672
aVbir
p7673
aVbis
p7674
aVsnapchattimg
p7675
aVsemo
p7676
aVknock
p7677
aVambrose
p7678
aVsemi
p7679
aVfollows
p7680
aVrider
p7681
aVfollowk
p7682
aVhirfrce
p7683
aVkleper452b
p7684
aVshanzay
p7685
aValrd
p7686
aVbahay
p7687
aVgoogle
p7688
aVgardening
p7689
aVoften
p7690
aVabsolutely
p7691
aVmagnificent
p7692
aVback
p7693
aVbach
p7694
aVstrongest
p7695
aVgrattis
p7696
aVpricing
p7697
aVmirror
p7698
aVcandle
p7699
aV30c
p7700
aVourselves
p7701
aVscale
p7702
aVbalms
p7703
aVcontacts
p7704
aVpet
p7705
aVdecision
p7706
aVhalfremembered
p7707
aVsaar
p7708
aVper
p7709
aVpes
p7710
aVzachs
p7711
aVsaam
p7712
aVsneakers
p7713
aVbogus
p7714
aVpee
p7715
aVepic
p7716
aVlaro
p7717
aVpea
p7718
aVlaughing
p7719
aVpatient
p7720
aVlymond
p7721
aVremembered
p7722
aV302
p7723
aV303
p7724
aVuff
p7725
aVrespected
p7726
aVhotwheels
p7727
aVlottery
p7728
aVtripping
p7729
aVunfaved
p7730
aVsmthng
p7731
aVbakar
p7732
aVrumble
p7733
aVpatml482
p7734
aVdelish
p7735
aVndee
p7736
aVjustn
p7737
aVgraduation
p7738
aVdrama
p7739
aVbelting
p7740
aVextensions
p7741
aVhahahaa
p7742
aVbish
p7743
aVlynettelowe
p7744
aVbakal
p7745
aVhahahah
p7746
aVpollution
p7747
aValiens
p7748
aVnsc
p7749
aVsurry
p7750
aVsoaping
p7751
aVastonvilla
p7752
aVsteven
p7753
aVlesson
p7754
aVoppahug
p7755
aValyaeldeeb12345
p7756
aVmka
p7757
aVjayt_jubby
p7758
aVqueenesther
p7759
aVforward
p7760
aVcashback
p7761
aVbored
p7762
aVneenkin
p7763
aVdoctored
p7764
aVwarlock
p7765
aVinvite
p7766
aVboys
p7767
aVhopes
p7768
aVnutshell
p7769
aVplaned
p7770
aVrejection
p7771
aVmych
p7772
aVplanet
p7773
aVhomobiphobic
p7774
aVgoodanna
p7775
aVdevastating
p7776
aVconstant
p7777
aVtitas
p7778
aVkahaf
p7779
aVmetal
p7780
aValternis
p7781
aVsingle
p7782
aVfreddys
p7783
aVromantica
p7784
aVlyk
p7785
aVtheyll
p7786
aVexcuses
p7787
aVreputation
p7788
aVafterznoon
p7789
aVellen
p7790
aVicarus
p7791
aVenterprison
p7792
aVopixer805
p7793
aVx15338
p7794
aVx15339
p7795
aVfavourite
p7796
aVheatwave
p7797
aVaggregates
p7798
aVenterprise
p7799
aVpapa
p7800
aVx15333
p7801
aVx15330
p7802
aVprepared
p7803
aVcharming
p7804
aVnakakapikon
p7805
aVbagus
p7806
aVscouting
p7807
aVmaldives
p7808
aVimplies
p7809
aVnoob
p7810
aVmallick
p7811
aVvehicles
p7812
aVresponded
p7813
aVpresenting
p7814
aVnaaahhh
p7815
aV2009
p7816
aVtube
p7817
aVjason
p7818
aVrabbit
p7819
aVquery
p7820
aVseolhyun
p7821
aVagaaaain
p7822
aVhighfive
p7823
aVpeanut
p7824
aVdeepthroat
p7825
aVsuave
p7826
aVhelps
p7827
aVbabes
p7828
aVatlas
p7829
aVfatal
p7830
aVdeennya
p7831
aV23rd
p7832
aVfeetblog101
p7833
aVputting
p7834
aVsnpcaht
p7835
aVlistenablecohesive
p7836
aVarrange
p7837
aVentire
p7838
aVshock
p7839
aVbusier
p7840
aVjoes
p7841
aVdupa
p7842
aVhavent
p7843
aVchoppy
p7844
aVbernie
p7845
aVbleeding
p7846
aVcarly
p7847
aVhion
p7848
aVcrop
p7849
aVlayouts
p7850
aVsalam
p7851
aVhemmings
p7852
aVsanum
p7853
aVchoma
p7854
aVwahoo
p7855
aVscreenshotting
p7856
aVyoona
p7857
aVgiving
p7858
aVanthem
p7859
aVpipes
p7860
aVm31
p7861
aVaccess
p7862
aVmalfunctioning
p7863
aVpayday
p7864
aVexercise
p7865
aVbody
p7866
aVlapar
p7867
aVbcause
p7868
aVbeasts
p7869
aVteleportation
p7870
aVnonexistent
p7871
aVarond
p7872
aVpacking
p7873
aVbodo
p7874
aVothers
p7875
aVsing
p7876
aVsafer
p7877
aVtammirossm
p7878
aVirritating
p7879
aVextreme
p7880
aVtalent
p7881
aVbeks
p7882
aVpeopleshooting
p7883
aVclimb
p7884
aVworkno
p7885
aVnamed
p7886
aVvips
p7887
aVcrashing
p7888
aVsirius
p7889
aVgoosnight
p7890
aVprivate
p7891
aVmanny
p7892
aVnames
p7893
aVt_____________t
p7894
aVthailand
p7895
aVoval
p7896
aVlime
p7897
aVbroker
p7898
aVthirsty
p7899
aVbreakup
p7900
aVchu
p7901
aVthemselves
p7902
aVoily
p7903
aVthirdwheeling
p7904
aVcharcoal
p7905
aVghrxoxo
p7906
aVupcoming
p7907
aVgiggle
p7908
aVduper
p7909
aVteenie
p7910
aVcrafting
p7911
aVpayne
p7912
aVtrail
p7913
aVtrain
p7914
aVprizes
p7915
aVashamed
p7916
aVannounce
p7917
aV4am
p7918
aVpathor
p7919
aVonting
p7920
aVminions
p7921
aVkashi
p7922
aVaccount
p7923
aVtunnel
p7924
aV840
p7925
aValix
p7926
aVthoofscreenhe
p7927
aVunreal
p7928
aVobvious
p7929
aVawwhh
p7930
aVclosing
p7931
aVdidnt
p7932
aVmuchbest
p7933
aVawesomeo
p7934
aVviolence
p7935
aVtab
p7936
aVinvoices
p7937
aVjoshane
p7938
aVezoo
p7939
aVbones
p7940
aVboner
p7941
aVnative
p7942
aV__karabom
p7943
aVdaring
p7944
aVdemocracy
p7945
aVtttt
p7946
aVaff
p7947
aVholds
p7948
aVlamo
p7949
aVregions
p7950
aVlamp
p7951
aVwinners
p7952
aVforest
p7953
aVfeta
p7954
aVstock
p7955
aVprofile
p7956
aVneighbor
p7957
aVgintama
p7958
aVsummers
p7959
aVkickstarter
p7960
aVwaters
p7961
aVcollection
p7962
aVbothered
p7963
aVkareenas
p7964
aVlovessss
p7965
aVcuddling
p7966
aVsinse
p7967
aVchasing
p7968
aV948
p7969
aVbing
p7970
aVlines
p7971
aV9am
p7972
aVsolos
p7973
aVaddiction
p7974
aVbins
p7975
aVwedding
p7976
aVquietly
p7977
aVmeter
p7978
aVpoetry
p7979
aVlootcrate
p7980
aVyna
p7981
aVnasty
p7982
aVbunch
p7983
aVweekendenjoy
p7984
aVburning
p7985
aVoppamiss
p7986
aVwinning
p7987
aVkindergarten
p7988
aVwilling
p7989
aVcriminal
p7990
aVstepped
p7991
aVdad
p7992
aVdae
p7993
aVgreater
p7994
aVdam
p7995
aVdan
p7996
aVspell
p7997
aVdah
p7998
aVdat
p7999
aVmention
p8000
aVdaw
p8001
aVpanga
p8002
aVdas
p8003
aVreaaly
p8004
aVday
p8005
aVrecuerda
p8006
aVairports
p8007
aVapinks
p8008
aVx15318
p8009
aVrhisfor500
p8010
aVfreshness
p8011
aVidentified
p8012
aVmichaels
p8013
aVnemen
p8014
aVbueno
p8015
aVlfc
p8016
aVparties
p8017
aVprogrammes
p8018
aVmachaya
p8019
aVmatt
p8020
aVdisgusts
p8021
aVdefend
p8022
aVreq
p8023
aVdongwoo
p8024
aViwantin
p8025
aVsmol
p8026
aVreh
p8027
aVmate
p8028
aVmessenger
p8029
aVstud
p8030
aVrec
p8031
aVpostpone
p8032
aVcharli
p8033
aVred
p8034
aVgears
p8035
aVjessica
p8036
aVfotoset
p8037
aVfrank
p8038
aVthnkyouuuuuuuuu
p8039
aVque
p8040
aVqui
p8041
aVbleed
p8042
aVinteraction
p8043
aVyard
p8044
aVrecipes
p8045
aVemang
p8046
aVbahot
p8047
aVretail
p8048
aVsouth
p8049
aVunfollowing
p8050
aVguzel
p8051
aVdefenitely
p8052
aVfasgadah
p8053
aVreaches
p8054
aVlollll
p8055
aVwhoop
p8056
aVhimachal
p8057
aVreached
p8058
aVfacil
p8059
aVbraces
p8060
aVpakistans
p8061
aVsadly
p8062
aVjingly
p8063
aVnikes
p8064
aVthwarting
p8065
aVcorinehurleigh
p8066
aVfahrenheit
p8067
aVimmovable
p8068
aVtherealgolden47
p8069
aVmessing
p8070
aVbosch
p8071
aVnut
p8072
aVtitus3d
p8073
aVcuuuuuuuuuuuuuuuuuuuuuuuuuuuuuuuuuuuuuuuuuuute
p8074
aVhelpveryhqcouk
p8075
aVbulldog
p8076
aVtop10
p8077
aVexplanation
p8078
aVnobody
p8079
aVdreary
p8080
aVwelorishemek
p8081
aVlowbat
p8082
aVcoughed
p8083
aV330670
p8084
aVloved
p8085
aVbabyy
p8086
aVcompensation
p8087
aVghante
p8088
aVloves
p8089
aVlover
p8090
aVvisited
p8091
aVlovey
p8092
aVimaginative
p8093
aVwayenjoy
p8094
aVpuhon
p8095
aVwakes
p8096
aVgtgtgtkhalila_
p8097
aVtidy
p8098
aVcurves
p8099
aVcomfortable
p8100
aVjinki
p8101
aVkepler
p8102
aVhoteemy
p8103
aVthroat
p8104
aVcurved
p8105
aVyouuuuuuu
p8106
aVapparently
p8107
aVnoodles
p8108
aVmin
p8109
aVmia
p8110
aVsandboarding
p8111
aVmic
p8112
aVparks
p8113
aVmix
p8114
aVmis
p8115
aVkatiiirocks
p8116
aVtapir
p8117
aVunless
p8118
aVsfv
p8119
aVhazel
p8120
aVpausing
p8121
aVmuv
p8122
aVkitkat
p8123
aVtranscript
p8124
aVpayment
p8125
aVpolice
p8126
aVspick
p8127
aVmilano
p8128
aVdisease
p8129
aVreachability
p8130
aVgelen
p8131
aVoccasion
p8132
aVmochamichelle
p8133
aVnormally
p8134
aVoutlive
p8135
aVtwers782
p8136
aVparasyte
p8137
aVkita
p8138
aVbhaiya
p8139
aVtext
p8140
aVcharles
p8141
aVwhyyyyyyy
p8142
aVkits
p8143
aVsupporter
p8144
aVstaff
p8145
aVsparky
p8146
aV5pm
p8147
aVkailan
p8148
aVknowledge
p8149
aVjetting
p8150
aVroadtrip
p8151
aVnooooo
p8152
aVscuttling
p8153
aVfatiguing
p8154
aVphotographs
p8155
aVx15319
p8156
aVkuskus1
p8157
aVlucozade
p8158
aVhahdhdhshhs
p8159
aVdelirious
p8160
aVbeat
p8161
aVcoworker
p8162
aVstripes
p8163
aVbear
p8164
aVx15317
p8165
aVbean
p8166
aVperfection
p8167
aVwonderfuls
p8168
aVtiming
p8169
aVstriped
p8170
aVhalo
p8171
aVwhilst
p8172
aVapproach
p8173
aVteams
p8174
aVganas
p8175
aVteami
p8176
aVmercedes
p8177
aVfixed
p8178
aVbarkkkkkkkiiideee
p8179
aVmadam
p8180
aVhayli
p8181
aVtimezones
p8182
aVnational
p8183
aVfourfiveseconds
p8184
aVgreece
p8185
aVracket
p8186
aVxxxxx
p8187
aVwalking
p8188
aVjennybae_xiii
p8189
aVpinkeu
p8190
aVpattern
p8191
aVheeeeyyy
p8192
aVicecream
p8193
aVwynter
p8194
aVroutine
p8195
aVwhaaaaaaaaaat
p8196
aVprogress
p8197
aVcauliflower
p8198
aVdeliver
p8199
aVbatman
p8200
aVrodfanta
p8201
aVnudges
p8202
aVsynced
p8203
aVselena
p8204
aVlegit
p8205
aV91130
p8206
aVnightmares
p8207
aVinstant
p8208
aVplugin
p8209
aVjoke
p8210
aVtaking
p8211
aVequal
p8212
aVtrips
p8213
aVbrooo
p8214
aVinsidious
p8215
aVsibei
p8216
aVrajud
p8217
aVpassing
p8218
aVgarbii
p8219
aVretweets
p8220
aVotherwise
p8221
aVcomment
p8222
aVrelevant
p8223
aVdenim
p8224
aVteasing
p8225
aVdenis
p8226
aVlaugh
p8227
aVwalnut
p8228
aVpouring
p8229
aVlongggg
p8230
aVmuddy
p8231
aVcopies
p8232
aVdarren
p8233
aVteamwork
p8234
aVgaza
p8235
aVcurtain
p8236
aVproposal
p8237
aVchoose
p8238
aVoverwhelmingly
p8239
aVgoddess
p8240
aVridden
p8241
aVorange
p8242
aVfinished
p8243
aVhiondsheings58543
p8244
aVassessments
p8245
aVfellow
p8246
aVhuehue
p8247
aVvolunteer
p8248
aVhomes
p8249
aVcypher
p8250
aVwelcoming
p8251
aVkuch
p8252
aVhomey
p8253
aVvalue
p8254
aVhomed
p8255
aVpromoted
p8256
aVvenomous
p8257
aVfrustrating
p8258
aVmanually
p8259
aVchaotic
p8260
aVnarendra
p8261
aVhelped
p8262
aVmanhe
p8263
aVarabia
p8264
aVpartner
p8265
aVmelatonin
p8266
aVpiles
p8267
aVslammed
p8268
aVgrindea
p8269
aVelmoprinssi
p8270
aVlaribuggy
p8271
aV01482
p8272
aVgiggles
p8273
aVselfish
p8274
aV22pics
p8275
aVbasemaps
p8276
aVfucker
p8277
aVbullying
p8278
aVion
p8279
aVshamen
p8280
aVflew
p8281
aVaidzin
p8282
aVsisters
p8283
aVsunburn
p8284
aVretard
p8285
aVcenter
p8286
aVpampered
p8287
aVdisappears
p8288
aVweapon
p8289
aVmasaan
p8290
aVthought
p8291
aVoops
p8292
aVsets
p8293
aVgooodnight
p8294
aVposition
p8295
aVcon
p8296
aVusual
p8297
aVstores
p8298
aVbarking
p8299
aVnicknames
p8300
aVgranddad
p8301
aVdomestic
p8302
aVseats
p8303
aVtone
p8304
aVadu
p8305
aVanymoreeeeee
p8306
aVwinchester
p8307
aVeffin
p8308
aVsweedy
p8309
aVlake
p8310
aVbench
p8311
aVadf
p8312
aVadd
p8313
aVada
p8314
aVohhh
p8315
aVmatch
p8316
aVraven
p8317
aVthankies
p8318
aVtests
p8319
aVworlds
p8320
aVfyi
p8321
aVfyn
p8322
aVjudiciary
p8323
aVhelpfulsensible
p8324
aVdubai
p8325
aVsowwy
p8326
aVlike
p8327
aVsuccess
p8328
aVvibrant
p8329
aV11pm
p8330
aVjournalism
p8331
aV230pm
p8332
aVtram
p8333
aVsarajevo
p8334
aVheed
p8335
aVworks
p8336
aVsoft
p8337
aVheel
p8338
aVitalian
p8339
aVsneezy
p8340
aVmushroomed
p8341
aVnje
p8342
aVpauline
p8343
aVhain
p8344
aValive
p8345
aVhair
p8346
aVwider
p8347
aVskulker
p8348
aVrecommendation
p8349
aVproper
p8350
aVpaddock
p8351
aVdied
p8352
aVsupportive
p8353
aVstuffy
p8354
aVhappens
p8355
aVtmr
p8356
aVest
p8357
aVmampg
p8358
aVbilly
p8359
aVwout
p8360
aVbang
p8361
aVhappend
p8362
aVscrewed
p8363
aVtmi
p8364
aVchains
p8365
aVmode
p8366
aVpepper
p8367
aVnoise
p8368
aVdci
p8369
aVrumpy
p8370
aVsherep
p8371
aVbathroom
p8372
aVnathann
p8373
aVginggon
p8374
aVhost
p8375
aVkristin
p8376
aValthough
p8377
aVworthy
p8378
aVllama
p8379
aVpanem
p8380
aVpanel
p8381
aVseriousness
p8382
aVconsumerism
p8383
aVcrikey
p8384
aVactual
p8385
aVjustin
p8386
aVcertainty
p8387
aVshaaaa
p8388
aV15th
p8389
aVahhhhh
p8390
aVrlyhurts
p8391
aVjannygreen18
p8392
aVpowerpoint
p8393
aVlukris
p8394
aVafterall
p8395
aVlifevideo
p8396
aVgibanica
p8397
aVsocks
p8398
aVchronic
p8399
aVdamnnn
p8400
aVdoesnt
p8401
aVesteem
p8402
aVfemale
p8403
aVcustard
p8404
aV1982
p8405
aVlegends
p8406
aVanalyst
p8407
aVvegetables
p8408
aVbiggest
p8409
aVrefurbished
p8410
aVmooddump
p8411
aVbuy
p8412
aVbobble
p8413
aVbus
p8414
aVbrand
p8415
aVdavids
p8416
aVbut
p8417
aVreminds
p8418
aVrepeated
p8419
aVplague
p8420
aVbum
p8421
aVactuallyand
p8422
aVediting
p8423
aVbug
p8424
aVbud
p8425
aVnaeun
p8426
aVmisty
p8427
aVwise
p8428
aV089624641747
p8429
aVdangerous
p8430
aVflip
p8431
aVmizz
p8432
aVsilverwashed
p8433
aVmcpe
p8434
aValliteration
p8435
aVminutes
p8436
aVminuter
p8437
aVskating
p8438
aVthenting423
p8439
aVsupreme
p8440
aVinspite
p8441
aVreplying
p8442
aVpin
p8443
aVpic
p8444
aVpie
p8445
aVhopkins
p8446
aV1nenokkadine
p8447
aVdisneyland
p8448
aVninasty
p8449
aVfamilies
p8450
aVshooting
p8451
aVcampus
p8452
aVanchors
p8453
aVawsme
p8454
aVboses
p8455
aVkarain
p8456
aVdetail
p8457
aVvirtual
p8458
aVdrugs
p8459
aVilla
p8460
aVmockingjay
p8461
aVtessnzach
p8462
aVdresses
p8463
aVcategory
p8464
aVlooooool
p8465
aVanythingsurely
p8466
aVshouldve
p8467
aV144p
p8468
aVbundle
p8469
aV9muses
p8470
aVmakita
p8471
aVgoin
p8472
aVprevalent
p8473
aVlactose
p8474
aVfest
p8475
aVoriginal
p8476
aVfck
p8477
aVyell
p8478
aVjohntimneyeclipsecouk
p8479
aVthunderstorms
p8480
aV8th
p8481
aVlimited
p8482
aVshowpo
p8483
aVgrowling
p8484
aVhats
p8485
aVderp
p8486
aVhath
p8487
aVsleep
p8488
aVsubserver
p8489
aVnwb
p8490
aVtebrik
p8491
aVhate
p8492
aVpoorly
p8493
aVbruno
p8494
aVfrudging
p8495
aVfeeding
p8496
aVparis
p8497
aVtweet
p8498
aVttyl
p8499
aVmwa
p8500
aVjeeze
p8501
aVmwf
p8502
aVwhatsoever
p8503
aVunder
p8504
aVpride
p8505
aVlure
p8506
aVrisk
p8507
aVuberuk
p8508
aVrise
p8509
aVevery
p8510
aVjack
p8511
aVkick
p8512
aVyippppy
p8513
aVjace
p8514
aVschool
p8515
aVbestfriend
p8516
aVparrot
p8517
aVokies
p8518
aVvenue
p8519
aV34k
p8520
aVharriet
p8521
aVenjoy
p8522
aVdisciplines
p8523
aVdirect
p8524
aVnail
p8525
aVuoccupynaija
p8526
aVstreet
p8527
aVeligible
p8528
aVestimated
p8529
aVveritably
p8530
aVshining
p8531
aVblue
p8532
aVimkhwezin
p8533
aVhide
p8534
aVgo1
p8535
aVelzzika
p8536
aVspinenothing
p8537
aVx15332
p8538
aVdaesh
p8539
aVngeze
p8540
aVinternships
p8541
aVpats
p8542
aVkicked
p8543
aVzack
p8544
aVzach
p8545
aVstared
p8546
aVhundreds
p8547
aVstudio
p8548
aVpath
p8549
aVdigits
p8550
aVproperty
p8551
aVleaves
p8552
aVchanged
p8553
aVyoungjae
p8554
aVjogging
p8555
aVfulltime
p8556
aVwft
p8557
aVchateau
p8558
aVsavanna
p8559
aVchanges
p8560
aVpixelated
p8561
aVpowys
p8562
aVstraw
p8563
aVjulie
p8564
aVacdcmissed
p8565
aVjulia
p8566
aVfeelings
p8567
aVpatience
p8568
aVngucapinnya
p8569
aVforums
p8570
aVheathrow
p8571
aVwould
p8572
aVhospital
p8573
aVstooooop
p8574
aVchargers
p8575
aVspike
p8576
aVchewing
p8577
aVpreview
p8578
aVbreathe
p8579
aVmush
p8580
aVroomits
p8581
aVphone
p8582
aVovertake
p8583
aVvarsity
p8584
aVexcellent
p8585
aVoutdated
p8586
aVmust
p8587
aVshoot
p8588
aVjoin
p8589
aVjoim
p8590
aVovergeneralization
p8591
aVdaft
p8592
aVinstall
p8593
aVpg279q
p8594
aVcarmen
p8595
aVcarmel
p8596
aVwhangarei
p8597
aVestate
p8598
aVoperatorswales
p8599
aVreach
p8600
aVplisss
p8601
aVmayhem
p8602
aVshouldeeerr
p8603
aVchswiyfxcskcalum
p8604
aVkeep
p8605
aVceremony
p8606
aVend
p8607
aVene
p8608
aVeng
p8609
aVreturning
p8610
aVenn
p8611
aVtoxin
p8612
aVchancecash
p8613
aVcharging
p8614
aVbadly
p8615
aVdescription
p8616
aVmouths
p8617
aVmess
p8618
aVinsecure
p8619
aVadrian
p8620
aVbefor
p8621
aVjumping
p8622
aVmeso
p8623
aVigers
p8624
aVtidying
p8625
aVneuer
p8626
aVsalsa
p8627
aVsick_fruits
p8628
aVkwento
p8629
aVamin
p8630
aVsplendid
p8631
aVamie
p8632
aVverfied
p8633
aVdaredevil
p8634
aVdanni
p8635
aVupside
p8636
aVjungle
p8637
aVnarcos
p8638
aVenter
p8639
aVschade
p8640
aVgidi
p8641
aVnaman
p8642
aVmaniataki
p8643
aVover
p8644
aVnawazuddin
p8645
aVorang
p8646
aVwhahahaha
p8647
aVeish
p8648
aVlondon
p8649
aVoven
p8650
aVima
p8651
aVbeside
p8652
aVimg
p8653
aVboxing
p8654
aVopus
p8655
aVbishes
p8656
aVexpectations
p8657
aVimo
p8658
aVwriting
p8659
aVims
p8660
aV404
p8661
aVcondition
p8662
aVfade
p8663
aVimy
p8664
aVhowdo
p8665
aVyukichan
p8666
aVtourist
p8667
aVrightand
p8668
aVplaster
p8669
aVtanithandicraft
p8670
aVdroppedlooks
p8671
aVthaanks
p8672
aVshawty
p8673
aValma
p8674
aVshadows
p8675
aVnetherlands
p8676
aValex
p8677
aVregularly
p8678
aVbunny
p8679
aVchoir
p8680
aVfilling
p8681
aVvictory
p8682
aVeach
p8683
aVlasting
p8684
aVsigning
p8685
aVv3nzor99
p8686
aVwentz
p8687
aVdiana
p8688
aVjoined
p8689
aVcelebrating
p8690
aVyvette
p8691
aVfridayd
p8692
aVsharknado
p8693
aVsaturday
p8694
aVpounce
p8695
aVgol
p8696
aVdivarh15
p8697
aVgon
p8698
aVdriving
p8699
aVday6
p8700
aVgod
p8701
aVwashed
p8702
aVlaid
p8703
aVgion886
p8704
aVmayday
p8705
aVnite
p8706
aVsakho
p8707
aVaja
p8708
aVnewly
p8709
aVbald
p8710
aVtthanks
p8711
aVnia
p8712
aVlilydale
p8713
aVassociate
p8714
aVsana
p8715
aVeternal
p8716
aVfree
p8717
aVfred
p8718
aVyouthats
p8719
aVmasterpiece
p8720
aVrain
p8721
aVwanted
p8722
aVmanzano
p8723
aVdayz
p8724
aVsods
p8725
aVargument
p8726
aVquitkarwaoyaaro
p8727
aVdirtydirty
p8728
aVritual
p8729
aVdays
p8730
aVtolerant
p8731
aVporosh
p8732
aVbitchface
p8733
aVheck
p8734
aVhopeless
p8735
aVsoda
p8736
aVonto
p8737
aVrecite
p8738
aVenix
p8739
aValready
p8740
aVnalamannn
p8741
aVnhl
p8742
aVsakin
p8743
aVnhi
p8744
aVtsktsk
p8745
aVhearing
p8746
aVlovable
p8747
aVrant
p8748
aVhawako
p8749
aVnhs
p8750
aVscissors
p8751
aVfern
p8752
aVtoy
p8753
aVkoel
p8754
aVguinness
p8755
aVsarcasm
p8756
aVtop
p8757
aVbarkada
p8758
aVbitcoin
p8759
aVfiction
p8760
aVtoo
p8761
aVtom
p8762
aVtrend
p8763
aVtoe
p8764
aVurban
p8765
aVmurder
p8766
aVpikami
p8767
aVtooo
p8768
aVserve
p8769
aVtook
p8770
aV190
p8771
aVkindest
p8772
aVwardrobe
p8773
aVabandoning
p8774
aVscenario
p8775
aVwarmup
p8776
aVnofx
p8777
aVwguest
p8778
aVcovent
p8779
aVaztec
p8780
aVcritiquesthats
p8781
aVclasses
p8782
aVflame
p8783
aVtoo_
p8784
aV10th
p8785
aV6gs
p8786
aVbridge
p8787
aVrad
p8788
aVfashion
p8789
aVfcking
p8790
aVran
p8791
aVram
p8792
aVkyle
p8793
aVtalking
p8794
aVrat
p8795
aVohhhh
p8796
aVspade
p8797
aVray
p8798
aVrelapse
p8799
aV1617
p8800
aVouat
p8801
aVsnow
p8802
aVballing
p8803
aVcongraaats
p8804
aVb2aa
p8805
aVmaxi
p8806
aVderek
p8807
aVlaughed
p8808
aVsnob
p8809
aVrides
p8810
aVdoomed
p8811
aVvishaya
p8812
aVyongbe
p8813
aVthough
p8814
aVphantasy
p8815
aVofferbut
p8816
aVpora
p8817
aVrewert
p8818
aVaudition
p8819
aVdmed
p8820
aVsethi
p8821
aVinnovate
p8822
aVhortons
p8823
aVparting
p8824
aVglow
p8825
aVpromotions
p8826
aVtreats
p8827
aVxfiles
p8828
aVflow
p8829
aVmusical
p8830
aVyang
p8831
aVcathos
p8832
aVinaccuracies
p8833
aVgratefulness
p8834
aVchris
p8835
aVentertaining
p8836
aVpasha
p8837
aVyouuu
p8838
aVagnes
p8839
aVkpop
p8840
aVinspire
p8841
aVcontacted
p8842
aVbigjuicyselfies
p8843
aVqueen
p8844
aVfucks
p8845
aVpleasanton
p8846
aVradio
p8847
aVearth
p8848
aVcondemned
p8849
aVtraditions
p8850
aVstoop
p8851
aVdelays
p8852
aVladolcevitainluxembourghotmailcom
p8853
aVvinny
p8854
aVgods
p8855
aVabt
p8856
aVchipotle
p8857
aVoct
p8858
aVgeez
p8859
aVmixture
p8860
aVsunglasses
p8861
aVgeer
p8862
aVwatch
p8863
aVamazon
p8864
aVbeagles
p8865
aVdespite
p8866
aVreport
p8867
aVbotanical
p8868
aVtribute
p8869
aVeverlasting
p8870
aVdominique
p8871
aVcountries
p8872
aVboggling
p8873
aVvlog
p8874
aVtwice
p8875
aVshots
p8876
aVruins
p8877
aVizzys
p8878
aVnux
p8879
aVhabit
p8880
aVvin_dourthe
p8881
aVinapp
p8882
aVresist
p8883
aVdeya
p8884
aVsubmitted
p8885
aVnuf
p8886
aVdisturbing
p8887
aVtommy
p8888
aVhenrys
p8889
aVslotted
p8890
aVggs
p8891
aViirc
p8892
aVnuestd
p8893
aVpatients
p8894
aVgrandmother
p8895
aVishe
p8896
aVmug
p8897
aVseehiah
p8898
aVfinger
p8899
aVhopefully
p8900
aVmum
p8901
aVmui
p8902
aVdiscovery
p8903
aVdonington
p8904
aVcajun
p8905
aVowww
p8906
aVpurity
p8907
aVweak
p8908
aVhowever
p8909
aVcamillus
p8910
aVboss
p8911
aVbeanatividad
p8912
aVfugly
p8913
aVwear
p8914
aVbes
p8915
aVdedication
p8916
aVnews
p8917
aVimprove
p8918
aVprotect
p8919
aVdormtel
p8920
aVfault
p8921
aVjelly
p8922
aVsheff
p8923
aVplayers
p8924
aVnothaveld765
p8925
aVgames
p8926
aVgamer
p8927
aVfaces
p8928
aVmarrish
p8929
aVgameplays
p8930
aVkaylas
p8931
aVlolliver
p8932
aVkaren
p8933
aVdissipating
p8934
aVyday
p8935
aVtrust
p8936
aVnovember
p8937
aVhitler
p8938
aVconference
p8939
aVhisaab
p8940
aVbikinis
p8941
aVbinge
p8942
aVlittluns
p8943
aVbeen
p8944
aVquickly
p8945
aVbeer
p8946
aVbees
p8947
aVolur
p8948
aVnigth
p8949
aVexpected
p8950
aV452b
p8951
aVkingdoms
p8952
aVsprite
p8953
aVpiggin
p8954
aVgemma
p8955
aVxxx
p8956
aVcatch
p8957
aVlovebox
p8958
aVlikeouh
p8959
aVteapot
p8960
aVdefinetly
p8961
aVkingfisher
p8962
aVdept
p8963
aVwhdjwksja
p8964
aVstopping
p8965
aVcracked
p8966
aVprocedure
p8967
aVisco
p8968
aVaccessories
p8969
aVexperts
p8970
aVsuperblend
p8971
aVsprevelink633
p8972
aVlcs
p8973
aValien
p8974
aVsuggest
p8975
aVpubes
p8976
aV8pm
p8977
aVinventory
p8978
aVyuna
p8979
aVmillie
p8980
aVseveral
p8981
aVx15350
p8982
aVyung
p8983
aVmoose
p8984
aVpampering
p8985
aVwelsh
p8986
aVpegell
p8987
aVfridays
p8988
aVcikaaawish
p8989
aVcharacters
p8990
aVyousad
p8991
aVmanush
p8992
aVcycle
p8993
aVdylan
p8994
aVshortly
p8995
aVcharlie
p8996
aVuploading
p8997
aVocean
p8998
aVmilte
p8999
aVgreatest
p9000
aVmother
p9001
aValarms
p9002
aVhearts
p9003
aVpicc
p9004
aVdads
p9005
aVoutnumbered
p9006
aV1hr
p9007
aVlatersign
p9008
aVproposed
p9009
aVvic
p9010
aVable
p9011
aVlaptop
p9012
aVbruise
p9013
aVgrades
p9014
aVthumbs
p9015
aVkanin
p9016
aVadidas
p9017
aVfurry
p9018
aVelf
p9019
aVpharmacy
p9020
aVpleaaase
p9021
aVrumor
p9022
aVlatmon
p9023
aVsuzan
p9024
aVgave
p9025
aVbandz
p9026
aVserbia
p9027
aVcasting
p9028
aVoffroading
p9029
aVmelting
p9030
aVthatjust
p9031
aVbreaks
p9032
aVlaughingsmiling
p9033
aVcultural
p9034
aVbandi
p9035
aVjudge
p9036
aVbanda
p9037
aVburnt
p9038
aVadvanced
p9039
aVapart
p9040
aVgifs
p9041
aVgift
p9042
aVfooty
p9043
aVcontradict
p9044
aVhunt
p9045
aVzoom
p9046
aVspecific
p9047
aVrenamed
p9048
aVoffices
p9049
aVmosquito
p9050
aVhuni
p9051
aVserbian
p9052
aVhung
p9053
aVaishhh
p9054
aVgifted
p9055
aVfuuuuuck
p9056
aVjennifer
p9057
aVmalaysia
p9058
aVelection
p9059
aVescape
p9060
aVbuttttttt
p9061
aVguess
p9062
aVintellect
p9063
aVcnt
p9064
aVcooper
p9065
aVcombat
p9066
aVice
p9067
aVeverything
p9068
aV1399
p9069
aVcnn
p9070
aV420
p9071
aVchristmas
p9072
aVbooking
p9073
aVtht
p9074
aVholiday
p9075
aVhse
p9076
aVdeleted
p9077
aVbrawl
p9078
aVcorn
p9079
aV530
p9080
aVqualky808
p9081
aVhsm
p9082
aVhsr
p9083
aVdiscount
p9084
aVwaxxa_official
p9085
aVbangalore
p9086
aVcory
p9087
aVquezon
p9088
aVplug
p9089
aVwht
p9090
aVmubark
p9091
aVlightbox
p9092
aVattacks
p9093
aVchoke
p9094
aVantagal
p9095
aVdinner
p9096
aVrobinhoodapp
p9097
aVplus
p9098
aVefforts
p9099
aVtwitch
p9100
aVsept
p9101
aVfacetime
p9102
aVduke
p9103
aVaha
p9104
aVabes
p9105
aVcivil
p9106
aVahh
p9107
aVppl
p9108
aVaccommodate
p9109
aVahs
p9110
aVhoxton
p9111
aVkebaya
p9112
aVguppy
p9113
aVrounds
p9114
aVexisted
p9115
aVexpired
p9116
aVscamper
p9117
aVsunlight
p9118
aVwhy
p9119
aVgig
p9120
aVstuck
p9121
aVfought
p9122
aVtirth
p9123
aVlagi
p9124
aVgin
p9125
aVrela
p9126
aVnawwwe
p9127
aVharlo
p9128
aVhead
p9129
aVmedium
p9130
aVdifferences
p9131
aVmoisturizing
p9132
aVheat
p9133
aVhear
p9134
aVsolar
p9135
aVmyhill
p9136
aVremoved
p9137
aVj11
p9138
aVviva
p9139
aVflavour
p9140
aVmuster
p9141
aVatty
p9142
aVruined
p9143
aVadore
p9144
aVcentralise
p9145
aVsupa
p9146
aVzodiac
p9147
aVcamara
p9148
aVidownloader
p9149
aVraha
p9150
aVnovel
p9151
aVdz9055
p9152
aViamabdallahkb
p9153
aVsometime
p9154
aVannoying
p9155
aVtrip
p9156
aVsavesso
p9157
aVtix
p9158
aVfaithful
p9159
aVmashup
p9160
aVwhen
p9161
aVtil
p9162
aVtim
p9163
aVtio
p9164
aVpanas
p9165
aVwhet
p9166
aVpapers
p9167
aVtid
p9168
aVtie
p9169
aVmovnat
p9170
aVeternity
p9171
aVpicture
p9172
aVsbenu
p9173
aVfootball
p9174
aVshamil
p9175
aVgreymind43
p9176
aVdischarge
p9177
aVstops
p9178
aVyounger
p9179
aVapologizing
p9180
aVfaster
p9181
aVti5
p9182
aVmjhe
p9183
aVjasonamprob
p9184
aVkirkiri
p9185
aVwwat
p9186
aVfleekile
p9187
aVserious
p9188
aVfurbabys
p9189
aVcoach
p9190
aVhardheaded
p9191
aVlorna
p9192
aVthooo
p9193
aVrob
p9194
aValternatives
p9195
aVfocus
p9196
aVleads
p9197
aVroy
p9198
aVsnit
p9199
aVdifollow
p9200
aVrow
p9201
aVykr
p9202
aVnetball
p9203
aVcontemplating
p9204
aVenvironment
p9205
aVcharge
p9206
aVaplomb
p9207
aVpromoting
p9208
aVknackered
p9209
aVbests
p9210
aVgtlt
p9211
aVsizing
p9212
aVunfamiliar
p9213
aVpopularor
p9214
aVwallets
p9215
aVtoogot
p9216
aVtanks
p9217
aVtylers
p9218
aVcook
p9219
aVperegrines
p9220
aVcool
p9221
aVaayegi
p9222
aVannoyingbaby
p9223
aVsucky
p9224
aVlevel
p9225
aVcody
p9226
aVphilippines
p9227
aVposts
p9228
aVbrother
p9229
aVstandards
p9230
aVicu
p9231
aVklm
p9232
aVquick
p9233
aVyall
p9234
aVshowsim
p9235
aVsays
p9236
aVsandcastle
p9237
aVcyber
p9238
aVsatguru
p9239
aVmeadowhall
p9240
aVcolin
p9241
aVdried
p9242
aVcomforting
p9243
aVdrinkt
p9244
aVyippee
p9245
aVfear
p9246
aVswishers
p9247
aVdrinks
p9248
aVstressful
p9249
aVstands
p9250
aVsayanggggggggg
p9251
aVoutboarding
p9252
aVwhittakerdesig1
p9253
aVgegu
p9254
aVgoes
p9255
aVreply
p9256
aVbeautifull
p9257
aVhairy
p9258
aVkami
p9259
aVdazed
p9260
aVouch
p9261
aVwater
p9262
aVentertain
p9263
aVillustration
p9264
aVgroups
p9265
aVtagal
p9266
aVsaaad
p9267
aVmicha
p9268
aVmaging
p9269
aVpreorder
p9270
aVoodles
p9271
aVfardo
p9272
aVhealthy
p9273
aVgrounded
p9274
aVguilty
p9275
aVstomachs
p9276
aVexams
p9277
aVunicefs
p9278
aVweird
p9279
aVmauryas
p9280
aVmotherfucking
p9281
aVdumb
p9282
aVshootings
p9283
aVtweak
p9284
aVbrighten
p9285
aVtransparentglasses
p9286
aVparalyzed
p9287
aV1st
p9288
aVprompt
p9289
aVcrisis
p9290
aVbulbs
p9291
aVandi
p9292
aVdolphins
p9293
aVaustralias
p9294
aVsuppl
p9295
aVlorm823
p9296
aVsports
p9297
aVhandles
p9298
aVandy
p9299
aViphone
p9300
aVb_indiie
p9301
aVmsg
p9302
aVpret
p9303
aVmse
p9304
aVnominiere
p9305
aVmsc
p9306
aVtoday
p9307
aVchrompet
p9308
aVprods
p9309
aVvishwas
p9310
aVsessions
p9311
aVclicking
p9312
aVchocolate
p9313
aVteaser
p9314
aVdrown
p9315
aVbeers
p9316
aVartworkbylie
p9317
aVcases
p9318
aVishal
p9319
aVsiya
p9320
aVdiner
p9321
aVjustget
p9322
aVbeety697
p9323
aVlocal
p9324
aVtodayyesterday
p9325
aVremarriage
p9326
aVjudy
p9327
aVphulani
p9328
aVferry
p9329
aVlaughter
p9330
aVvalls
p9331
aVstreak
p9332
aVcorrupted
p9333
aVfigure
p9334
aVgeeks
p9335
aVsn16
p9336
aVstroke
p9337
aVperformed
p9338
aVworkin
p9339
aVfeelin
p9340
aVcounting
p9341
aVkumble
p9342
aVswedish
p9343
aVbigot
p9344
aVrequirements
p9345
aVhatigii
p9346
aVdisvirginedlike
p9347
aVafsos
p9348
aVmuchie
p9349
aVpetrofac
p9350
aVinnumerable
p9351
aVlorenangel8
p9352
aVensure
p9353
aVcontinous
p9354
aVobvs
p9355
aVhuge
p9356
aVinsecurities
p9357
aVrespective
p9358
aVeuuuwwww
p9359
aVcrashed
p9360
aVheartbreaking
p9361
aVbirthday
p9362
aVtipped
p9363
aVwagging
p9364
aVyiling
p9365
aVnooooooo
p9366
aVdrained
p9367
aVliquid
p9368
aVcurry
p9369
aVdevo
p9370
aV2hrs
p9371
aVinform
p9372
aVgap
p9373
aVlemess
p9374
aVexclusive
p9375
aVcomfort
p9376
aVsoniii
p9377
aVdeptnot
p9378
aVhugh
p9379
aVmidnight
p9380
aVblocked
p9381
aVrohit
p9382
aVgta
p9383
aVgtd
p9384
aVgtg
p9385
aVgt_gt
p9386
aVorganisation
p9387
aVoffers
p9388
aVtbf
p9389
aVsamosas
p9390
aVhappened
p9391
aVlonely
p9392
aVharmful
p9393
aVmoms
p9394
aVconversations
p9395
aVbound
p9396
aVsabah
p9397
aVqualified
p9398
aVmomo
p9399
aVchuckin
p9400
aVbath
p9401
aVterm
p9402
aVfilmed
p9403
aVname
p9404
aVtera
p9405
aValeks
p9406
aVpossibilities
p9407
aVrealistic
p9408
aVnams
p9409
aVhashbrowns
p9410
aVrealise
p9411
aVrumbelle
p9412
aVupto
p9413
aVbissmillah
p9414
aVnode15
p9415
aVeyesmiles
p9416
aVprelims
p9417
aVkimmy
p9418
aVdistressing
p9419
aVcatching
p9420
aVbegun
p9421
aVobsession
p9422
aVsunrise
p9423
aVultimately
p9424
aV100k
p9425
aVgfriend
p9426
aVwhatthefuck
p9427
aVfactory
p9428
aVcancels
p9429
aVhacked
p9430
aVshe
p9431
aVeagle
p9432
aVtheory
p9433
aVhull
p9434
aVboobs
p9435
aVhulk
p9436
aVcapcom
p9437
aVdig
p9438
aVshiiiitt
p9439
aVbrolol
p9440
aV7782
p9441
aVexplorers
p9442
aVvidcon
p9443
aVbisexuality
p9444
aVgusto
p9445
aVturn
p9446
aVlockscreen
p9447
aVplace
p9448
aVswine
p9449
aVyun
p9450
aVanyonneeee
p9451
aVchildhood
p9452
aVokayx
p9453
aV1000
p9454
aVorigin
p9455
aVhahahaaah
p9456
aVshedding
p9457
aVretainers
p9458
aVdepleted
p9459
aVpokemon
p9460
aVsyawal
p9461
aVaccs
p9462
aVengineer
p9463
aVsquashed
p9464
aVmeoooowwww
p9465
aVgiven
p9466
aVian
p9467
aVdistrict
p9468
aVvirgin
p9469
aVeurope
p9470
aVpakighinabi
p9471
aVreturns
p9472
aVseeker
p9473
aVsuuuuuuuper
p9474
aVconvention
p9475
aVwhite
p9476
aVbgtau
p9477
aVscreencaps
p9478
aVgives
p9479
aVexploring
p9480
aVhug
p9481
aVtheoper479
p9482
aVhub
p9483
aVcope
p9484
aVseason
p9485
aVhun
p9486
aVhurtful
p9487
aVhuh
p9488
aVreleased
p9489
aVsilang
p9490
aVprydz
p9491
aVlage
p9492
aVotwol
p9493
aVcopy
p9494
aVholder
p9495
aVbelow
p9496
aVwide
p9497
aVcardi
p9498
aVlagg
p9499
aVnathan
p9500
aVlmao
p9501
aVlwwf
p9502
aVyasss
p9503
aVsuriya
p9504
aVcomputer
p9505
aVooze
p9506
aVtweeting
p9507
aVcards
p9508
aVpoisoning
p9509
aVmarines
p9510
aVdissapointed
p9511
aVand
p9512
aVbrianaaaa
p9513
aVwavy
p9514
aVang
p9515
aVoulive70748
p9516
aVchloe
p9517
aVtarts
p9518
aVpro
p9519
aVano
p9520
aVpri
p9521
aVank
p9522
aVant
p9523
aVanu
p9524
aVmater
p9525
aVrent
p9526
aVans
p9527
aVany
p9528
aVanz
p9529
aVconversion
p9530
aVsourceso
p9531
aVanyare
p9532
aVideas
p9533
aVmalta
p9534
aVideal
p9535
aVanimation
p9536
aVomggg
p9537
aVxxxxxx
p9538
aVtakfaham
p9539
aVprisssss
p9540
aVdudesdudettes
p9541
aVsure
p9542
aVmultiple
p9543
aVmahilig
p9544
aVwowlooking
p9545
aVurgh
p9546
aVfalls
p9547
aVchippys
p9548
aVdonation
p9549
aVsuicideect
p9550
aVconnor
p9551
aVcleared
p9552
aVicon
p9553
aVexperttradesmen
p9554
aVjimins
p9555
aVseafood
p9556
aVproud
p9557
aVhungry
p9558
aVangeke
p9559
aVomigod
p9560
aVsoho
p9561
aVsenior
p9562
aVpenge
p9563
aVjaebum
p9564
aVdetective
p9565
aVnls
p9566
aVforeals
p9567
aVcheat
p9568
aVworkshops
p9569
aVcheap
p9570
aVconvos
p9571
aVnlb
p9572
aVtks
p9573
aVhack
p9574
aVroutte
p9575
aVtrop
p9576
aVmister
p9577
aVpffff
p9578
aVwoot
p9579
aVupcome
p9580
aVkittehs
p9581
aVwritten
p9582
aVcrime
p9583
aVcongratz
p9584
aVwood
p9585
aVmadeline
p9586
aVkesa
p9587
aVdreaded
p9588
aVtampcs
p9589
aVtayo
p9590
aVuncles
p9591
aVandals
p9592
aVjazz
p9593
aVbegging
p9594
aVhoya
p9595
aVtimming
p9596
aVlighter
p9597
aVinstalled
p9598
aVneither
p9599
aVfreaking
p9600
aVregarding
p9601
aVfainted
p9602
aVnaked
p9603
aVjokes
p9604
aVclowns
p9605
aVpredicted
p9606
aVdough
p9607
aVpants
p9608
aVdiscussing
p9609
aVignored
p9610
aVpicnic
p9611
aVken
p9612
aVpsychopaths
p9613
aVsuperdry
p9614
aVjaagalerts
p9615
aVignores
p9616
aVapologies
p9617
aVwototally
p9618
aVlng
p9619
aVencouraged
p9620
aVfails
p9621
aVspares
p9622
aVways
p9623
aVpano
p9624
aVreview
p9625
aVamen
p9626
aVshiva
p9627
aVweapons
p9628
aVoutside
p9629
aVtoying
p9630
aVwouldve
p9631
aVarrival
p9632
aVbummed
p9633
aVsembuh
p9634
aVcomp
p9635
aVguitar
p9636
aVpcy
p9637
aVbigtime
p9638
aVcities
p9639
aVcome
p9640
aV6yrs
p9641
aV_uneo
p9642
aVreaction
p9643
aVdelevingnes
p9644
aVregion
p9645
aVquiet
p9646
aVcontract
p9647
aVtakeover
p9648
aVrailway
p9649
aVdarlin
p9650
aVduty
p9651
aVpakistan
p9652
aVkey
p9653
aVpox
p9654
aVcolor
p9655
aVnooooope
p9656
aVpot
p9657
aVpou
p9658
aVpor
p9659
aVhellooooooooo
p9660
aVpop
p9661
aVpon
p9662
aVapproval
p9663
aVhotter
p9664
aVnicola
p9665
aVpoc
p9666
aVhayst
p9667
aVturkey
p9668
aVsympathis
p9669
aVeonnie
p9670
aV508
p9671
aVpeaceful
p9672
aVriverdd
p9673
aVfeaturing
p9674
aVhardly
p9675
aV500
p9676
aVengine
p9677
aVdirection
p9678
aVdiesel
p9679
aVmairi
p9680
aV11am4pm
p9681
aVtasteless
p9682
aVrobbed
p9683
aVblessing
p9684
aVandrew
p9685
aVtiger
p9686
aVpcb
p9687
aVminister
p9688
aV7df89150
p9689
aVhernia
p9690
aVattentive
p9691
aVyescant
p9692
aVspirit
p9693
aVreabsorbtion
p9694
aVyots
p9695
aVpaying
p9696
aVilladvised
p9697
aVmyself
p9698
aVthigh
p9699
aVcash
p9700
aVetienne
p9701
aVcast
p9702
aVyisss
p9703
aVpcd
p9704
aVcass
p9705
aVshops
p9706
aVslippers
p9707
aVcorbyn
p9708
aVcolleague
p9709
aVsasin
p9710
aVpippa
p9711
aVhurting
p9712
aVcouples
p9713
aVgood
p9714
aVbohat
p9715
aVmadexx
p9716
aVsaera
p9717
aVfacesor
p9718
aVauthor
p9719
aVsanza
p9720
aVbowl
p9721
aVcheck
p9722
aVshifts
p9723
aVvantastic
p9724
aVemta
p9725
aVmanila
p9726
aVyeahhh
p9727
aVreminder
p9728
aVretweeting
p9729
aVevents
p9730
aVtodos
p9731
aVderby
p9732
aVweek
p9733
aVpersona
p9734
aVscreenshot
p9735
aVdriver
p9736
aVdrives
p9737
aVweed
p9738
aVpersons
p9739
aVchanging
p9740
aVcartoon
p9741
aVclasie
p9742
aVjisoo
p9743
aVxxxibmchll
p9744
aVmagical
p9745
aVwithout
p9746
aVrelief
p9747
aVsculptors
p9748
aVmodel
p9749
aVresearchers
p9750
aVkyuhyun
p9751
aVbrisbane
p9752
aVtip
p9753
aVactress
p9754
aVkill
p9755
aVnorhing
p9756
aVpolish
p9757
aVrewatch
p9758
aVguides
p9759
aVcaptured
p9760
aVhalfway
p9761
aVrosh
p9762
aVsexyamelie20
p9763
aVrose
p9764
aVmanuella
p9765
aVseems
p9766
aVexcept
p9767
aVblog
p9768
aVwall
p9769
aVlets
p9770
aVsetting
p9771
aVsamples
p9772
aVhuhuhuhu
p9773
aVross
p9774
aVkingdom
p9775
aVlunches
p9776
aVmalese
p9777
aVkills
p9778
aVdelhi
p9779
aVnowwt
p9780
aVfridge
p9781
aVinflation
p9782
aVzayn
p9783
aVschedules
p9784
aVconfined
p9785
aVaccepted
p9786
aVtengaman
p9787
aVdeth
p9788
aVwbu
p9789
aVhanaaaa
p9790
aVpatrice
p9791
aVgwss
p9792
aVfoxys
p9793
aVcoursee
p9794
aVbracelet
p9795
aVbtob
p9796
aVnnnnnnot
p9797
aVdety
p9798
aVliaotake
p9799
aVsoshi
p9800
aVjoking
p9801
aVnikkei
p9802
aVcompetition
p9803
aVmooorning
p9804
aVtable
p9805
aVslice
p9806
aVcaribbean
p9807
aVmood
p9808
aVfrees
p9809
aVhighest
p9810
aVgoogled
p9811
aVlegal
p9812
aVmoon
p9813
aVhipster
p9814
aVcrueler
p9815
aVredid
p9816
aVmarula
p9817
aVfreed
p9818
aVpoem
p9819
aVlmfao
p9820
aVnails
p9821
aVcommunicate
p9822
aVloudest
p9823
aVdestroyedgt
p9824
aVbeaches
p9825
aVwesen
p9826
aVstans
p9827
aVparalysis
p9828
aVstand
p9829
aVrships
p9830
aVtitos
p9831
aVamber
p9832
aVladies
p9833
aV2ish
p9834
aV1ly
p9835
aVallover
p9836
aV75x
p9837
aVharm
p9838
aVemeged
p9839
aVcharts
p9840
aVcursed
p9841
aVpipol
p9842
aVrising
p9843
aVsare
p9844
aVimsorry
p9845
aVbuds
p9846
aVseatmates
p9847
aVrefinements
p9848
aVstrictly
p9849
aVthere
p9850
aVracist
p9851
aVheyyyyy
p9852
aVehn
p9853
aVehm
p9854
aVenergy
p9855
aVehh
p9856
aVtreat
p9857
aVkittens
p9858
aVlmaooo
p9859
aVjul
p9860
aVpromote
p9861
aVlonger
p9862
aVt_t
p9863
aVhallows
p9864
aVtaimoor
p9865
aVgameswatch
p9866
aVgrasp
p9867
aVflats
p9868
aVabouty797
p9869
aVusername
p9870
aVtaylor
p9871
aVcinema
p9872
aV0116am
p9873
aVhuhuhuhuhu
p9874
aVbritain
p9875
aVintro
p9876
aVtasty
p9877
aVrevamps
p9878
aVharvest
p9879
aVpolitics
p9880
aVtriathletes
p9881
aVhit
p9882
aVhasnt
p9883
aVhateeeee
p9884
aVidiot
p9885
aVdeserve
p9886
aVdiarrhea
p9887
aVbesok
p9888
aVinsurance
p9889
aVrubber
p9890
aVroses
p9891
aVign
p9892
aVunneeded
p9893
aVtrash
p9894
aVnewsround
p9895
aVtarryn
p9896
aVbapak
p9897
aVyouthbipolarukorguk
p9898
aVfinale
p9899
aVincludes
p9900
aVsulli
p9901
aVtonighttheres
p9902
aVreynoldsgrl
p9903
aVhwy
p9904
aVincluded
p9905
aVchikka
p9906
aVfinals
p9907
aVlipstick
p9908
aVkhuzy_k
p9909
aVtunaita
p9910
aVbooked
p9911
aVassassins
p9912
aVwiff
p9913
aVernie
p9914
aVcalls
p9915
aVwife
p9916
aVodds
p9917
aVwifi
p9918
aVwebsites
p9919
aVcurvy
p9920
aVcaramoan
p9921
aVdostoevskys
p9922
aVshadys
p9923
aVx15344
p9924
aVtanned
p9925
aValn
p9926
aVall
p9927
aVlack
p9928
aVarini
p9929
aVabit
p9930
aVala
p9931
aVagover73
p9932
aVkicks
p9933
aVbdays
p9934
aVdisc
p9935
aVbdayt
p9936
aVsmoking
p9937
aVfollow
p9938
aVmeditation
p9939
aVdisk
p9940
aVdecisions
p9941
aVbapu
p9942
aVhmmm
p9943
aVapartment
p9944
aVdiplomacy
p9945
aVthursday
p9946
aVinit
p9947
aVprogram
p9948
aVdairy
p9949
aVroyally
p9950
aVpresentation
p9951
aVurslef
p9952
aVsona
p9953
aVbelonging
p9954
aVwoman
p9955
aVworse
p9956
aVsong
p9957
aVlitey
p9958
aVfas
p9959
aVgrinds
p9960
aVfav
p9961
aVfat
p9962
aVcowokaddict
p9963
aVfah
p9964
aVsons
p9965
aVfan
p9966
aVfam
p9967
aVfab
p9968
aVsony
p9969
aVbubbles
p9970
aVdarling
p9971
aVyolkarjoma
p9972
aVtreating
p9973
aVliara
p9974
aVshweta
p9975
aVlist
p9976
aVakere
p9977
aVviber
p9978
aVlisa
p9979
aVprogramme
p9980
aVteh
p9981
aVten
p9982
aVcoffeeweekdays
p9983
aVclient
p9984
aVtea
p9985
aVted
p9986
aVtee
p9987
aVwhens
p9988
aVrate
p9989
aVdesign
p9990
aVrata
p9991
aVnba
p9992
aVhaaa
p9993
aVreina
p9994
aVkuffar
p9995
aVwhat
p9996
aVperf
p9997
aVsun
p9998
aVsum
p9999
aVsuk
p10000
aVanniversary
p10001
aVoverload
p10002
aVwhay
p10003
aVcrush
p10004
aVversion
p10005
aVattitudes
p10006
aVmusta
p10007
aVcinemas
p10008
aVnohope
p10009
aVracing
p10010
aVguns
p10011
aVsux
p10012
aVchristian
p10013
aVneng
p10014
aVwacha
p10015
aVsupposedly
p10016
aVmune874
p10017
aVjkjk
p10018
aVnnnoooo
p10019
aVyvw
p10020
aVleeds
p10021
aVfloofs
p10022
aVshoulda
p10023
aVvicky
p10024
aV7304
p10025
aVgoalscorer
p10026
aVverry
p10027
aVjentop
p10028
aVallows
p10029
aVcopping
p10030
aVhonestlymore
p10031
aVmilkshake
p10032
aVpramis
p10033
aVmxico
p10034
aVroomie
p10035
aVmusicas
p10036
aVsticking
p10037
aVhahaah
p10038
aVdamned
p10039
aVafropunk
p10040
aVtexts
p10041
aVsemester
p10042
aVdemis
p10043
aVsch
p10044
aV1900
p10045
aVemoji
p10046
aVproceed
p10047
aVhurray
p10048
aVshite
p10049
aVnowwww
p10050
aVbonilla
p10051
aVrearended
p10052
aVshits
p10053
aVhorses
p10054
aVflat
p10055
aVknows
p10056
aVbumped
p10057
aVspacers
p10058
aVmelon
p10059
aVbasically
p10060
aV26weeks
p10061
aV190s
p10062
aVsoloists
p10063
aVknowi
p10064
aVedel
p10065
aVdebates
p10066
aVtweenie_fox
p10067
aVyeaaaah
p10068
aVawesomeee
p10069
aVrodwell
p10070
aVsan__zanele
p10071
aVtline
p10072
aVshattering
p10073
aVpero
p10074
aV418am
p10075
aVneeding
p10076
aVpony
p10077
aVstomachache
p10078
aVimitation
p10079
aVpong
p10080
aVdurian
p10081
aVinfluenced
p10082
aVhousemates
p10083
aVcourt
p10084
aVgoal
p10085
aVrather
p10086
aVbreaking
p10087
aVattenders
p10088
aVmagpie
p10089
aVwracking
p10090
aVoccasionally
p10091
aVpossibly
p10092
aVinfluencer
p10093
aVuxoxolove
p10094
aVexplains
p10095
aVgoat
p10096
aVshouldnt
p10097
aVokay
p10098
aVheadrest
p10099
aVanimator
p10100
aV1277
p10101
aVreplace
p10102
aVlighting
p10103
aVadventure
p10104
aVnumb
p10105
aVsoftball
p10106
aVsloppy
p10107
aVballads
p10108
aVshort
p10109
aVshady
p10110
aVdeparture
p10111
aVstash
p10112
aVbebeeeee
p10113
aVbarbs
p10114
aVgrande
p10115
aVshade
p10116
aVretaliate
p10117
aVharap
p10118
aVnanti
p10119
aVseptember
p10120
aVdeveloped
p10121
aVfinnigan
p10122
aVkitten
p10123
aVmission
p10124
aVdisabled
p10125
aVoutraged
p10126
aVisnt
p10127
aVscientist
p10128
aVgudday
p10129
aVmam
p10130
aV50000
p10131
aVstyle
p10132
aVmateo
p10133
aVpray
p10134
aVnsbzhdnxndamal
p10135
aVhahahahahhaha
p10136
aVresort
p10137
aVstrange
p10138
aV98fm
p10139
aVstephen
p10140
aVbout
p10141
aVsoccer
p10142
aVmight
p10143
aVservus
p10144
aVreturn
p10145
aVinch
p10146
aVcooler
p10147
aVrightthe
p10148
aVwakeup
p10149
aVcommunities
p10150
aVvalentine
p10151
aVbollywood
p10152
aVadventurous
p10153
aVbigger
p10154
aVinstructions
p10155
aV40mm
p10156
aVrefresh
p10157
aVstiles
p10158
aVlegend
p10159
aVdebacle
p10160
aVletting
p10161
aVknowwww
p10162
aVgagal
p10163
aVminsyou
p10164
aVfriendship
p10165
aVweight
p10166
aVtakraw
p10167
aVpeeps
p10168
aVoppressed
p10169
aVsuprised
p10170
aVpirated
p10171
aVexpect
p10172
aVlola
p10173
aVbitchessss
p10174
aVprolly
p10175
aValcohol
p10176
aVwondered
p10177
aVtseba
p10178
aVlolo
p10179
aVlols
p10180
aVhealth
p10181
aVindirecting
p10182
aVparadise
p10183
aVlolz
p10184
aVjonathanjoly
p10185
aVclandestins
p10186
aVaitor
p10187
aVcosmovisiontoo
p10188
aVchillinwith
p10189
aVfriday
p10190
aVforgive
p10191
aVdiploma
p10192
aVplayables
p10193
aVcookie
p10194
aVheads
p10195
aVteach
p10196
aVbushes
p10197
aVthread
p10198
aVsaaaaaaad
p10199
aVnakaka
p10200
aVwll
p10201
aVthreat
p10202
aVfallen
p10203
aV5th
p10204
aVcaged
p10205
aVfeed
p10206
aVdine
p10207
aVunhealthy
p10208
aVfeel
p10209
aVrelate
p10210
aVsydney
p10211
aVbhai
p10212
aVfancy
p10213
aVlinking
p10214
aVfeet
p10215
aVsympathy
p10216
aVcolombia
p10217
aVyoot
p10218
aVbland
p10219
aVslower
p10220
aVsoaps
p10221
aVnotifs
p10222
aVpasses
p10223
aVstory
p10224
aVkyunke
p10225
aVtemperature
p10226
aVscript
p10227
aVleading
p10228
aVscrummy
p10229
aVcomfy
p10230
aVdoomsday
p10231
aVniam
p10232
aVesai
p10233
aVpassed
p10234
aVpitted
p10235
aVsyrup
p10236
aVmoar
p10237
aVstore
p10238
aVsyrus
p10239
aVoption
p10240
aVhelloooo
p10241
aVcupboards
p10242
aVhotel
p10243
aVekta
p10244
aVauspost
p10245
aVclicksco
p10246
aVluckily
p10247
aVmesince
p10248
aVconvinced
p10249
aVreliever
p10250
aVking
p10251
aVkind
p10252
aVreaally
p10253
aVinuyasha
p10254
aVkina
p10255
aVdouble
p10256
aVstalk
p10257
aVkins
p10258
aVdang
p10259
aVhomegirl
p10260
aVvoucher
p10261
aVmotivation
p10262
aVjsut
p10263
aVoutstanding
p10264
aVsuspicious
p10265
aVnak
p10266
aVwoohyun
p10267
aVcleaned
p10268
aVtalkkama
p10269
aVnights
p10270
aVcolourdeb
p10271
aVpara
p10272
aVnighty
p10273
aVsandwiches
p10274
aVyeahh
p10275
aVfinding
p10276
aVniaaaaaaaaaaaaaaaaaaaaaaaaaaa
p10277
aVkagami
p10278
aVphileas
p10279
aVadded
p10280
aVexec
p10281
aVjsl
p10282
aVmentality
p10283
aVayemso
p10284
aVreunited
p10285
aVjst
p10286
aVamat
p10287
aVpamela
p10288
aVsandra
p10289
aVnothing
p10290
aVseasons
p10291
aVhuhu
p10292
aVtzelumxoxo
p10293
aVgrams
p10294
aVwindows
p10295
aV10am
p10296
aVrealised
p10297
aVlying
p10298
aVstones
p10299
aVrtd
p10300
aVsleepovers
p10301
aVappendix
p10302
aVfond
p10303
aVmhhh
p10304
aVfiringoffboarding
p10305
aVrts
p10306
aVfont
p10307
aVvodkas
p10308
aVbff
p10309
aVendlessly
p10310
aVcanaria
p10311
aVbfr
p10312
aVchalna
p10313
aVsayhappybirthday
p10314
aVromabut
p10315
aVshepherd
p10316
aVhis
p10317
aVtriangle
p10318
aVtommorow
p10319
aVpregnant
p10320
aVcanarios
p10321
aVbeardy
p10322
aVtherver85552
p10323
aVlongest
p10324
aVhih
p10325
aVhii
p10326
aVhyperbullies
p10327
aVhim
p10328
aVtypos
p10329
aVplss
p10330
aV1017
p10331
aVcries
p10332
aVnibbles
p10333
aVchoreographing
p10334
aVinvestigate
p10335
aVactivity
p10336
aVvincent
p10337
aVwrote
p10338
aVnas
p10339
aVloveliness
p10340
aVart
p10341
aVdump
p10342
aVstefanie
p10343
aVkylie
p10344
aVarc
p10345
aVbare
p10346
aVare
p10347
aVgarydid
p10348
aVbark
p10349
aVark
p10350
aVarm
p10351
aVreusful
p10352
aVrecording
p10353
aVlearnt
p10354
aVupvotes
p10355
aVnutella
p10356
aVrod
p10357
aVups
p10358
aVyettygeers
p10359
aVscheuermanns
p10360
aVrosa
p10361
aVcancelling
p10362
aVsolo
p10363
aVlatin
p10364
aVrecently
p10365
aVthankyouuu
p10366
aVkhatam
p10367
aVinitially
p10368
aVsold
p10369
aVattention
p10370
aVconfiscated
p10371
aVoutfit
p10372
aVsucceed
p10373
aVrarer
p10374
aVtrespassers
p10375
aV5878e503
p10376
aVprescription
p10377
aVkarhy
p10378
aVwowza
p10379
aVpwrfl
p10380
aVsamjha
p10381
aVcontext
p10382
aVsentirse
p10383
aVflies
p10384
aVtgv
p10385
aVreasons
p10386
aVsweet
p10387
aVdudes
p10388
aVcrisps
p10389
aVvillage
p10390
aVrave
p10391
aVtgk
p10392
aVslots
p10393
aVgoats
p10394
aVduh
p10395
aVjava
p10396
aVdum
p10397
aVdun
p10398
aVduo
p10399
aVdua
p10400
aVdub
p10401
aVpolitical
p10402
aVdue
p10403
aVteacher
p10404
aVwhom
p10405
aVnicki
p10406
aVpining
p10407
aVwhod
p10408
aVdur
p10409
aVdus
p10410
aVswt
p10411
aVwoke
p10412
aVeidfeeling
p10413
aVakong
p10414
aVflight
p10415
aVslideshow
p10416
aVsupprt
p10417
aVwhatchya
p10418
aVoitnb
p10419
aVdemand
p10420
aVekk
p10421
aVrocking
p10422
aVcreases
p10423
aVgeorgia
p10424
aVgeorgie
p10425
aVfrozen
p10426
aVahah
p10427
aVbatch
p10428
aVunprecedented
p10429
aVhomework
p10430
aVtherep
p10431
aVkamiss
p10432
aVtheres
p10433
aVohmygod
p10434
aVlunchdinner
p10435
aVshowers
p10436
aVdublin
p10437
aVris
p10438
aVrip
p10439
aVdisappointing
p10440
aVdisneyarts
p10441
aVrid
p10442
aVsering2
p10443
aVrib
p10444
aVtroye
p10445
aVshirt
p10446
aVnoooo
p10447
aVpetaling
p10448
aVdelicious
p10449
aVupwt
p10450
aVwidely
p10451
aVpeoples
p10452
aVfederer
p10453
aVnooow
p10454
aVliterature
p10455
aV899
p10456
aVbarney
p10457
aVflows
p10458
aVholidays
p10459
aVwhoooah
p10460
aVcouldve
p10461
aVmoving
p10462
aVbambam
p10463
aVhandlettering
p10464
aVthalaivar
p10465
aVwheres
p10466
aVljp5
p10467
aVshir0
p10468
aVlower
p10469
aVbnte
p10470
aVanybody
p10471
aVoooops
p10472
aVcheer
p10473
aVmachinery
p10474
aVcounts2nd
p10475
aVknow
p10476
aVyujin
p10477
aVendeavour
p10478
aVinactive
p10479
aVquestions
p10480
aVselamat
p10481
aVprince
p10482
aVgems
p10483
aVloading
p10484
aVbeeeeepin
p10485
aVtablet
p10486
aVworkers
p10487
aVbecca
p10488
aVimpairs
p10489
aVproblematic
p10490
aVcustomers
p10491
aVcomplains
p10492
aVunlimited
p10493
aVkasi
p10494
aVmoods
p10495
aVsaphire
p10496
aVdayweek
p10497
aVrotate
p10498
aVlost
p10499
aVwingstop
p10500
aVandaming
p10501
aVinstore
p10502
aVseparately
p10503
aViyalaya
p10504
aV4my
p10505
aVstings
p10506
aVnairobi
p10507
aVnowlooks
p10508
aVikaw
p10509
aVfucking
p10510
aVstreaming
p10511
aVlitter
p10512
aVdirectx11
p10513
aVnewsletter
p10514
aVpros
p10515
aVmeds
p10516
aVclient_amends_edit_5_final_final_finalpdf
p10517
aVanne
p10518
aVprob
p10519
aVanna
p10520
aVflavors
p10521
aVjuja
p10522
aVzzz
p10523
aVnameeee
p10524
aVmartin
p10525
aVaskies
p10526
aVfortune500
p10527
aVtamang
p10528
aVintense
p10529
aVwrecking
p10530
aVvolunteering
p10531
aVfuckkk
p10532
aVlifeless
p10533
aVrange
p10534
aVfoood
p10535
aVkebun
p10536
aVsexyjudy19
p10537
aVrappings
p10538
aVhatred
p10539
aVwomens
p10540
aVwanna
p10541
aVrestrict
p10542
aVbarnstaplebideford
p10543
aVnatsuki
p10544
aVwowwww
p10545
aVmommy
p10546
aVblaines
p10547
aVtombow
p10548
aVchara
p10549
aVmomma
p10550
aVnigga
p10551
aVlaserlike
p10552
aVaddictedtoanalsex
p10553
aVgiriboy
p10554
aVsers
p10555
aVihhh
p10556
aVimpressed
p10557
aVextremely
p10558
aVxoxo
p10559
aVfast
p10560
aVsxrew
p10561
aVbrum
p10562
aVrapunzel
p10563
aVpreordered
p10564
aVprettier
p10565
aVbruh
p10566
aVprey
p10567
aVphp5mysql
p10568
aVfiles
p10569
aVwna
p10570
aVinvestigations
p10571
aVokayyyy
p10572
aVmemory
p10573
aVgirlfriends
p10574
aVkarlia
p10575
aVrepeatedly
p10576
aVwnt
p10577
aVdelta
p10578
aVjunior
p10579
aVraising
p10580
aVfics
p10581
aVhws
p10582
aVfries
p10583
aVstalking
p10584
aVjouch
p10585
aVhappyyyyyy
p10586
aVfried
p10587
aVlandscapes
p10588
aVcalled
p10589
aVsunnies
p10590
aVnawwwee
p10591
aVfreak
p10592
aVworthwhile
p10593
aVstick
p10594
aVkathryn
p10595
aVwarning
p10596
aVelvena
p10597
aVcrepes
p10598
aVrally
p10599
aVbbut
p10600
aVliking
p10601
aVpoooo
p10602
aVgrt
p10603
aVlemon
p10604
aVgrs
p10605
aVrains
p10606
aVskrillah
p10607
aVpeace
p10608
aVsaffron
p10609
aVclub
p10610
aVghanton
p10611
aVurquhart
p10612
aVmaverickgamer_
p10613
aVnice
p10614
aVdale
p10615
aVmuddled
p10616
aVusers
p10617
aVenvelope
p10618
aVcalifor
p10619
aVmissin
p10620
aVproblems
p10621
aVhelping
p10622
aVbonding
p10623
aVeverone
p10624
aVallowing
p10625
aVbcoz
p10626
aVremix
p10627
aVhappier
p10628
aVnanaman
p10629
aVfoundry
p10630
aVdepartments
p10631
aVdragged
p10632
aVweights
p10633
aVhaizzz
p10634
aVnash
p10635
aVonce
p10636
aVgans
p10637
aVpervert
p10638
aVarbeloa
p10639
aVsteve
p10640
aVgang
p10641
aVwinds
p10642
aVcontributions
p10643
aVissues
p10644
aVsimon
p10645
aVitll
p10646
aVrewarding
p10647
aVvaing642
p10648
aVlanguages
p10649
aVwkwkwwlk_jhope
p10650
aVlolipop
p10651
aVstable
p10652
aVbreach
p10653
aVinclude
p10654
aVconfirmation
p10655
aVwished
p10656
aVlloyds
p10657
aVgina
p10658
aVging
p10659
aVmadadagdagan
p10660
aVniqqa
p10661
aV02079
p10662
aVdrinking
p10663
aVrosidbinr
p10664
aVnotes
p10665
aV190cr
p10666
aVtofrom
p10667
aViph0ne
p10668
aVthr
p10669
aVnowdays
p10670
aVmelodies
p10671
aValltime
p10672
aVnoted
p10673
aVpleas
p10674
aVsomeday
p10675
aVpussycats
p10676
aVoche
p10677
aVnagato
p10678
aVmodified
p10679
aVomaigoshhhhhhh
p10680
aVumma
p10681
aVtraveling
p10682
aVummm
p10683
aVacid
p10684
aVfolk
p10685
aVrrp
p10686
aVunavailable
p10687
aVscreenshots
p10688
aVndabenhle
p10689
aVbooooore
p10690
aVhardest
p10691
aVnetworks
p10692
aVwaiting
p10693
aVplsssssss
p10694
aVchallo
p10695
aVimpact
p10696
aVcozy
p10697
aVdegree
p10698
aVpushing
p10699
aVitokay
p10700
aVmits
p10701
aV100times
p10702
aVsexy
p10703
aVewok
p10704
aVukraine
p10705
aVwarehousing
p10706
aVcag
p10707
aVspiced
p10708
aVtelat
p10709
aVbanate
p10710
aVdraking
p10711
aVtharkness
p10712
aVsnobby
p10713
aVdaming
p10714
aVapple
p10715
aVsoundcheck
p10716
aVegypt
p10717
aVaps
p10718
aVapp
p10719
aVconfession
p10720
aVapt
p10721
aVlupet
p10722
aVduck
p10723
aVapb
p10724
aVapply
p10725
aVkurta
p10726
aVape
p10727
aVuse
p10728
aVhahahahaha
p10729
aVfeb
p10730
aVstream
p10731
aVusa
p10732
aVfron
p10733
aVdoodle
p10734
aVgern
p10735
aVfrog
p10736
aVfew
p10737
aVuss
p10738
aVexpanding
p10739
aVfakmarey
p10740
aVfrou
p10741
aVwalay
p10742
aVsort
p10743
aVclever
p10744
aVporch
p10745
aVinfection
p10746
aVsore
p10747
aVconnie
p10748
aVpenis
p10749
aVtsk
p10750
aVwomen
p10751
aVpixgram
p10752
aV7pm
p10753
aVanywhere
p10754
aVprbrand
p10755
aVhua
p10756
aVabstinence
p10757
aVdropped
p10758
aVtat
p10759
aVtau
p10760
aVpatron
p10761
aVinaccessible
p10762
aVtax
p10763
aVtay
p10764
aVtad
p10765
aVtae
p10766
aVtag
p10767
aVsomething
p10768
aVcuttingmaking
p10769
aVjeebus
p10770
aVtan
p10771
aVyumuyoutuber
p10772
aVonions
p10773
aVrape
p10774
aVtak
p10775
aVsis
p10776
aVsir
p10777
aVnetsec
p10778
aVunited
p10779
aVsyndrome
p10780
aVsit
p10781
aVhandover
p10782
aVtanto
p10783
aVsix
p10784
aVstruggles
p10785
aVsic
p10786
aVbrian
p10787
aVsia
p10788
aVkamaal
p10789
aVesnho
p10790
aVinstead
p10791
aVpanic
p10792
aVsin
p10793
aVgurl
p10794
aVthe_madstork
p10795
aVtension
p10796
aVattend
p10797
aVmasks
p10798
aVthorin
p10799
aVchesties
p10800
aVtack
p10801
aVtaco
p10802
aVhahahaha
p10803
aVcheaper
p10804
aVmomentsideas
p10805
aVreece
p10806
aVstatus
p10807
aVbenedictervention
p10808
aVlight
p10809
aVhschool
p10810
aVnycpv
p10811
aVbudge
p10812
aVhonestly
p10813
aVshityoure
p10814
aVehem
p10815
aVanelempupa
p10816
aVtimeguess
p10817
aVbeauties
p10818
aVe_topeh
p10819
aVbasta
p10820
aVtropics
p10821
aVilhoon
p10822
aV132
p10823
aV130
p10824
aVlooks
p10825
aVkbs
p10826
aVspotify
p10827
aVphilippa
p10828
aVkateee
p10829
aVships
p10830
aVchover
p10831
aVtyler
p10832
aVyesterdays
p10833
aVjehwan
p10834
aVredhead
p10835
aVcovered
p10836
aVbye
p10837
aVsweden
p10838
aVcrash
p10839
aVoutfwith
p10840
aVclifton
p10841
aVpractice
p10842
aVneals
p10843
aVcampaigner
p10844
aVgassed
p10845
aVarticles
p10846
aVsurah
p10847
aVedit
p10848
aVsubcontinent
p10849
aVtrimmed
p10850
aVtrap
p10851
aVkevens
p10852
aVarianator
p10853
aVbills
p10854
aVmuahah
p10855
aVkylies
p10856
aVchiquitos
p10857
aVrelated
p10858
aVgirlll
p10859
aVour
p10860
aV8ball
p10861
aVout
p10862
aVlt3
p10863
aVrespects
p10864
aVcocktail
p10865
aVhawaii
p10866
aVrply
p10867
aVjalulu
p10868
aVchaos
p10869
aVpampanga
p10870
aVsupports
p10871
aVciaras
p10872
aVplanner
p10873
aVipod
p10874
aVmolly
p10875
aVwilllow
p10876
aVyork
p10877
aVmoody
p10878
aVdisgusted
p10879
aVhunny
p10880
aVorganic
p10881
aVconversation
p10882
aV4th
p10883
aVjozi
p10884
aVrm35
p10885
aVhence
p10886
aVkatamari
p10887
aVphrased
p10888
aVinsane
p10889
aVawwwwwwwwwww
p10890
aVoverdrawn
p10891
aVtwas
p10892
aVimperial
p10893
aVpublication
p10894
aVintention
p10895
aVunknown
p10896
aVaccent
p10897
aVpriority
p10898
aVtheir
p10899
aV1500
p10900
aVbeforewhen
p10901
aVsian
p10902
aVboii
p10903
aVmisunderstood
p10904
aVshell
p10905
aVhmmmask
p10906
aVnjareeeeem
p10907
aVupdate
p10908
aVdebate
p10909
aVjohnny_spacey
p10910
aVjuly
p10911
aVinstitution
p10912
aVbeastmode
p10913
aVtedthought
p10914
aVboring
p10915
aVgeoff
p10916
aVenought
p10917
aVapexis
p10918
aVgoning
p10919
aVmammoths
p10920
aVosxchromevoiceover
p10921
aVgawd
p10922
aVencore
p10923
aVwhyyy
p10924
aVclip
p10925
aVdoliphoto
p10926
aVtaeyeons
p10927
aVavoplex
p10928
aVunfriend
p10929
aVstromae
p10930
aVsleeeeep
p10931
aVafraid
p10932
aVroux
p10933
aVpropriety
p10934
aVmgapinoypatama
p10935
aVbedshaving
p10936
aVshane
p10937
aVwhich
p10938
aVasshole
p10939
aVtrivia
p10940
aVyouuuu
p10941
aVheswifi
p10942
aVpretzels
p10943
aVclash
p10944
aVcentre
p10945
aVpetrol
p10946
aVwhn
p10947
aVwho
p10948
aVdadas
p10949
aV0388
p10950
aVsisterinlaw
p10951
aVnoggin
p10952
aVcracking
p10953
aVdelve
p10954
aVclass
p10955
aVsubjective
p10956
aVdeny
p10957
aVjanjua
p10958
aVrefreshing
p10959
aVsaddest
p10960
aVbenteke
p10961
aVlooked
p10962
aVdeactivate
p10963
aVyum
p10964
aVfowles
p10965
aVmovie
p10966
aVxavier
p10967
aVfank
p10968
aVurghhh
p10969
aVgain
p10970
aVson
p10971
aVngga
p10972
aVfraand
p10973
aVchances
p10974
aVmaknae
p10975
aVagreed
p10976
aVjazmin
p10977
aVhinala
p10978
aVchapters
p10979
aVplanning
p10980
aVmaricarljanah
p10981
aVtaxonomic
p10982
aVchicken
p10983
aVfeat
p10984
aVpleased
p10985
aVnearer
p10986
aVholistic
p10987
aVmugs
p10988
aVmumbai
p10989
aVclutching
p10990
aVpossitve
p10991
aVjunhee
p10992
aVsunflowers
p10993
aVlemme
p10994
aVdeactivated
p10995
aVpiano
p10996
aVsialan
p10997
aVokeyyyyyy
p10998
aVcube
p10999
aVtopple
p11000
aVwatching
p11001
aVchicago
p11002
aVmainly
p11003
aVdope
p11004
aVblainedarren
p11005
aVawww
p11006
aVones
p11007
aVwords
p11008
aVchips
p11009
aVburned
p11010
aVdonate
p11011
aVhitter
p11012
aVbrain
p11013
aVmarried
p11014
aVhabhab
p11015
aVrita
p11016
aVqueries
p11017
aVpostie
p11018
aV11am
p11019
aVchalkhill
p11020
aVview
p11021
aVknowing
p11022
aVlt3333
p11023
aVessaycheyetee
p11024
aVartsy
p11025
aVspazzing
p11026
aVaaaaaaaaaaa
p11027
aVluminous
p11028
aVgahd
p11029
aVgmail
p11030
aVcloser
p11031
aVbraid
p11032
aVcloset
p11033
aVgunderson
p11034
aVcried
p11035
aVitna
p11036
aVcarriage
p11037
aVsuperb
p11038
aVfavor
p11039
aVboughy
p11040
aVclosed
p11041
aVstories
p11042
aVfrustrated
p11043
aVbought
p11044
aVfugiwara
p11045
aVexam
p11046
aVopening
p11047
aVjoy
p11048
aVmewill
p11049
aVagencies
p11050
aVjob
p11051
aVjoc
p11052
aVjoe
p11053
aVspoil
p11054
aVswift
p11055
aVeritation
p11056
aVjhalak
p11057
aVnagbabasa
p11058
aVwaisted
p11059
aVapril
p11060
aVatleast
p11061
aVjuaquin
p11062
aVbenzema
p11063
aVcanopy
p11064
aVchutes
p11065
aVhehehe
p11066
aVwala
p11067
aVtunisia
p11068
aVvipgeneral
p11069
aVwali
p11070
aVgaling
p11071
aVwalk
p11072
aVpolka
p11073
aVrespect
p11074
aVjeffweiner
p11075
aVbbm
p11076
aVnfinite
p11077
aVdecent
p11078
aVbbc
p11079
aVbbb
p11080
aVhindi
p11081
aVbby
p11082
aVhinde
p11083
aVbbq
p11084
aVremedies
p11085
aVbragging
p11086
aVmike
p11087
aVfireddestiny21
p11088
aVgeneral
p11089
aVphela
p11090
aVpainted
p11091
aVhmu
p11092
aVspammer
p11093
aVinquisitor
p11094
aVhmm
p11095
aVthings2cope
p11096
aVupsets
p11097
aVessentially
p11098
aVpresent
p11099
aVabandoned
p11100
aVunlike
p11101
aVsidharth
p11102
aVvanilla
p11103
aVwill
p11104
aVinfluential
p11105
aVstunning
p11106
aVcapeee
p11107
aVwild
p11108
aVboatbound
p11109
aVlrka
p11110
aVlayer
p11111
aVthus
p11112
aVavi
p11113
aVdual
p11114
aVthug
p11115
aVave
p11116
aVhueeeee
p11117
aVblogiversary
p11118
aVperhaps
p11119
aVcross
p11120
aVsinhala
p11121
aVmember
p11122
aVinca
p11123
aVunits
p11124
aVgets
p11125
aVincl
p11126
aVtomatoes
p11127
aVdifficult
p11128
aVsheeran
p11129
aVsinuend
p11130
aVelbows
p11131
aVsuzy
p11132
aVpromo
p11133
aVpremiere
p11134
aVdefinately
p11135
aVdisagree
p11136
aVcollab
p11137
aVjaann
p11138
aVbeast
p11139
aVintroduce
p11140
aVstudent
p11141
aVpedal
p11142
aVsoph
p11143
aVcollat
p11144
aVcollar
p11145
aVaytona
p11146
aVhala
p11147
aVchinua
p11148
aVapprove
p11149
aVfighting
p11150
aVgutted
p11151
aVspectator
p11152
aVenglish
p11153
aVtails
p11154
aVpersonalised
p11155
aVbending
p11156
aVnadal
p11157
aVcarrie
p11158
aVrocket
p11159
aVtirtagangga
p11160
aVinfluencers
p11161
aVrecap
p11162
aVbatteries
p11163
aVfishing
p11164
aVnou
p11165
aVhappiness
p11166
aV0732pm
p11167
aVconsole
p11168
aVtaal
p11169
aVdrunk
p11170
aVsky
p11171
aVdiscuss
p11172
aVarresting
p11173
aVbook
p11174
aVusagi
p11175
aVmunchkins
p11176
aVusage
p11177
aVsmart
p11178
aVparticpants
p11179
aVpreholiday
p11180
aVbranch
p11181
aVmasquerade
p11182
aVpakistanbleedgreen
p11183
aVwarnaaaaaaa
p11184
aVcommunity
p11185
aVpress
p11186
aVcoincidence
p11187
aVkaties
p11188
aVhelpful
p11189
aVmiami
p11190
aVdanceeeeee
p11191
aVloser
p11192
aVloses
p11193
aVtonightive
p11194
aVkabirfell
p11195
aVjames
p11196
aVwonders
p11197
aVvirginity
p11198
aVbecause
p11199
aVsetter
p11200
aVscared
p11201
aVscottish
p11202
aVtumblr
p11203
aVniggs
p11204
aV111
p11205
aV110
p11206
aV112
p11207
aVcaradelevingne
p11208
aVjeremy
p11209
aVlead
p11210
aVmines
p11211
aVwong
p11212
aVstackare
p11213
aVearrings
p11214
aVleader
p11215
aVlocate
p11216
aVripped
p11217
aVnoooooooooooooooooo
p11218
aVkernels
p11219
aVdangling
p11220
aVjune
p11221
aV11h
p11222
aVultor
p11223
aVpaste
p11224
aVndi
p11225
aVrare
p11226
aVgetting
p11227
aVspilled
p11228
aVsumer
p11229
aVshipping
p11230
aVepiphany
p11231
aVswear
p11232
aVsweat
p11233
aVhairs
p11234
aVpumps
p11235
aVcreate
p11236
aVwarranty
p11237
aVowl
p11238
aVown
p11239
aVpreform
p11240
aVnarrowminded
p11241
aVarchdbanterbury
p11242
aVowe
p11243
aVairdroid
p11244
aVmidend
p11245
aVemotive
p11246
aVfinnicks
p11247
aVchoroo
p11248
aVloner
p11249
aVweather
p11250
aVpromise
p11251
aVbrush
p11252
aVhayeee
p11253
aVnegate
p11254
aVhahaahahahaha
p11255
aVbrilliantly
p11256
aVvan
p11257
aVvam
p11258
aVtransfer
p11259
aVapps
p11260
aVkidding
p11261
aVcontinental
p11262
aVuniting
p11263
aVhaiss
p11264
aVappa
p11265
aVbahari
p11266
aVvenuss
p11267
aVbitches
p11268
aVvolume
p11269
aVladys
p11270
aValexs
p11271
aVgranny
p11272
aVshant
p11273
aVsterlings
p11274
aVsnsd
p11275
aVmade
p11276
aVkarte
p11277
aVmadi
p11278
aVrecord
p11279
aVlvg
p11280
aVumboh
p11281
aVmads
p11282
aVarnd
p11283
aVcake
p11284
aVfaggot
p11285
aVmady
p11286
aVcmon
p11287
aVokaaay
p11288
aVhorrific
p11289
aVmalema
p11290
aVaditya
p11291
aVmeaningless
p11292
aVmaroon
p11293
aVsrijith
p11294
aVjenni
p11295
aVgoodness
p11296
aVjenna
p11297
aVmutual
p11298
aV0702am
p11299
aVincredible
p11300
aVphotoset
p11301
aVboot
p11302
aVpallavi
p11303
aVcrack
p11304
aVbrightampcolorful
p11305
aVother
p11306
aVboom
p11307
aVsick
p11308
aVmujy
p11309
aVcoffees
p11310
aVboob
p11311
aVincredibly
p11312
aVcontacting
p11313
aVkinds
p11314
aVphotoshoooot
p11315
aVmon27july
p11316
aVafang
p11317
aVsocialising
p11318
aVsandwhich
p11319
aVkinda
p11320
aVpalembang
p11321
aVpriced
p11322
aVultraviolet
p11323
aVlukkkee
p11324
aVexpedia
p11325
aVdominoes
p11326
aVtonnes
p11327
aVirony
p11328
aVsorna
p11329
aVphps
p11330
a.